Archive member included to satisfy reference by file (symbol)

d:/dev/vhdl/program/nios2eds/bin/gnu/h-x86_64-mingw32/bin/../lib/gcc/nios2-elf/5.3.0/../../../../../H-x86_64-mingw32/nios2-elf/lib/mhw-mulx\libc.a(lib_a-malloc.o)
                              obj/default/hello_ucosii.o (malloc)
d:/dev/vhdl/program/nios2eds/bin/gnu/h-x86_64-mingw32/bin/../lib/gcc/nios2-elf/5.3.0/../../../../../H-x86_64-mingw32/nios2-elf/lib/mhw-mulx\libc.a(lib_a-mallocr.o)
                              d:/dev/vhdl/program/nios2eds/bin/gnu/h-x86_64-mingw32/bin/../lib/gcc/nios2-elf/5.3.0/../../../../../H-x86_64-mingw32/nios2-elf/lib/mhw-mulx\libc.a(lib_a-malloc.o) (_malloc_r)
d:/dev/vhdl/program/nios2eds/bin/gnu/h-x86_64-mingw32/bin/../lib/gcc/nios2-elf/5.3.0/../../../../../H-x86_64-mingw32/nios2-elf/lib/mhw-mulx\libc.a(lib_a-printf.o)
                              obj/default/hello_ucosii.o (printf)
d:/dev/vhdl/program/nios2eds/bin/gnu/h-x86_64-mingw32/bin/../lib/gcc/nios2-elf/5.3.0/../../../../../H-x86_64-mingw32/nios2-elf/lib/mhw-mulx\libc.a(lib_a-rand.o)
                              obj/default/hello_ucosii.o (rand)
d:/dev/vhdl/program/nios2eds/bin/gnu/h-x86_64-mingw32/bin/../lib/gcc/nios2-elf/5.3.0/../../../../../H-x86_64-mingw32/nios2-elf/lib/mhw-mulx\libc.a(lib_a-sbrkr.o)
                              d:/dev/vhdl/program/nios2eds/bin/gnu/h-x86_64-mingw32/bin/../lib/gcc/nios2-elf/5.3.0/../../../../../H-x86_64-mingw32/nios2-elf/lib/mhw-mulx\libc.a(lib_a-mallocr.o) (_sbrk_r)
d:/dev/vhdl/program/nios2eds/bin/gnu/h-x86_64-mingw32/bin/../lib/gcc/nios2-elf/5.3.0/../../../../../H-x86_64-mingw32/nios2-elf/lib/mhw-mulx\libc.a(lib_a-vfprintf.o)
                              d:/dev/vhdl/program/nios2eds/bin/gnu/h-x86_64-mingw32/bin/../lib/gcc/nios2-elf/5.3.0/../../../../../H-x86_64-mingw32/nios2-elf/lib/mhw-mulx\libc.a(lib_a-printf.o) (___vfprintf_internal_r)
d:/dev/vhdl/program/nios2eds/bin/gnu/h-x86_64-mingw32/bin/../lib/gcc/nios2-elf/5.3.0/../../../../../H-x86_64-mingw32/nios2-elf/lib/mhw-mulx\libc.a(lib_a-wsetup.o)
                              d:/dev/vhdl/program/nios2eds/bin/gnu/h-x86_64-mingw32/bin/../lib/gcc/nios2-elf/5.3.0/../../../../../H-x86_64-mingw32/nios2-elf/lib/mhw-mulx\libc.a(lib_a-vfprintf.o) (__swsetup_r)
d:/dev/vhdl/program/nios2eds/bin/gnu/h-x86_64-mingw32/bin/../lib/gcc/nios2-elf/5.3.0/../../../../../H-x86_64-mingw32/nios2-elf/lib/mhw-mulx\libc.a(lib_a-dtoa.o)
                              d:/dev/vhdl/program/nios2eds/bin/gnu/h-x86_64-mingw32/bin/../lib/gcc/nios2-elf/5.3.0/../../../../../H-x86_64-mingw32/nios2-elf/lib/mhw-mulx\libc.a(lib_a-vfprintf.o) (_dtoa_r)
d:/dev/vhdl/program/nios2eds/bin/gnu/h-x86_64-mingw32/bin/../lib/gcc/nios2-elf/5.3.0/../../../../../H-x86_64-mingw32/nios2-elf/lib/mhw-mulx\libc.a(lib_a-fflush.o)
                              d:/dev/vhdl/program/nios2eds/bin/gnu/h-x86_64-mingw32/bin/../lib/gcc/nios2-elf/5.3.0/../../../../../H-x86_64-mingw32/nios2-elf/lib/mhw-mulx\libc.a(lib_a-vfprintf.o) (_fflush_r)
d:/dev/vhdl/program/nios2eds/bin/gnu/h-x86_64-mingw32/bin/../lib/gcc/nios2-elf/5.3.0/../../../../../H-x86_64-mingw32/nios2-elf/lib/mhw-mulx\libc.a(lib_a-findfp.o)
                              d:/dev/vhdl/program/nios2eds/bin/gnu/h-x86_64-mingw32/bin/../lib/gcc/nios2-elf/5.3.0/../../../../../H-x86_64-mingw32/nios2-elf/lib/mhw-mulx\libc.a(lib_a-vfprintf.o) (__sinit)
d:/dev/vhdl/program/nios2eds/bin/gnu/h-x86_64-mingw32/bin/../lib/gcc/nios2-elf/5.3.0/../../../../../H-x86_64-mingw32/nios2-elf/lib/mhw-mulx\libc.a(lib_a-freer.o)
                              d:/dev/vhdl/program/nios2eds/bin/gnu/h-x86_64-mingw32/bin/../lib/gcc/nios2-elf/5.3.0/../../../../../H-x86_64-mingw32/nios2-elf/lib/mhw-mulx\libc.a(lib_a-malloc.o) (_free_r)
d:/dev/vhdl/program/nios2eds/bin/gnu/h-x86_64-mingw32/bin/../lib/gcc/nios2-elf/5.3.0/../../../../../H-x86_64-mingw32/nios2-elf/lib/mhw-mulx\libc.a(lib_a-fwalk.o)
                              d:/dev/vhdl/program/nios2eds/bin/gnu/h-x86_64-mingw32/bin/../lib/gcc/nios2-elf/5.3.0/../../../../../H-x86_64-mingw32/nios2-elf/lib/mhw-mulx\libc.a(lib_a-findfp.o) (_fwalk)
d:/dev/vhdl/program/nios2eds/bin/gnu/h-x86_64-mingw32/bin/../lib/gcc/nios2-elf/5.3.0/../../../../../H-x86_64-mingw32/nios2-elf/lib/mhw-mulx\libc.a(lib_a-impure.o)
                              d:/dev/vhdl/program/nios2eds/bin/gnu/h-x86_64-mingw32/bin/../lib/gcc/nios2-elf/5.3.0/../../../../../H-x86_64-mingw32/nios2-elf/lib/mhw-mulx\libc.a(lib_a-fflush.o) (_global_impure_ptr)
d:/dev/vhdl/program/nios2eds/bin/gnu/h-x86_64-mingw32/bin/../lib/gcc/nios2-elf/5.3.0/../../../../../H-x86_64-mingw32/nios2-elf/lib/mhw-mulx\libc.a(lib_a-int_errno.o)
                              d:/dev/vhdl/program/nios2eds/bin/gnu/h-x86_64-mingw32/bin/../lib/gcc/nios2-elf/5.3.0/../../../../../H-x86_64-mingw32/nios2-elf/lib/mhw-mulx\libc.a(lib_a-sbrkr.o) (errno)
d:/dev/vhdl/program/nios2eds/bin/gnu/h-x86_64-mingw32/bin/../lib/gcc/nios2-elf/5.3.0/../../../../../H-x86_64-mingw32/nios2-elf/lib/mhw-mulx\libc.a(lib_a-locale.o)
                              d:/dev/vhdl/program/nios2eds/bin/gnu/h-x86_64-mingw32/bin/../lib/gcc/nios2-elf/5.3.0/../../../../../H-x86_64-mingw32/nios2-elf/lib/mhw-mulx\libc.a(lib_a-vfprintf.o) (_localeconv_r)
d:/dev/vhdl/program/nios2eds/bin/gnu/h-x86_64-mingw32/bin/../lib/gcc/nios2-elf/5.3.0/../../../../../H-x86_64-mingw32/nios2-elf/lib/mhw-mulx\libc.a(lib_a-makebuf.o)
                              d:/dev/vhdl/program/nios2eds/bin/gnu/h-x86_64-mingw32/bin/../lib/gcc/nios2-elf/5.3.0/../../../../../H-x86_64-mingw32/nios2-elf/lib/mhw-mulx\libc.a(lib_a-wsetup.o) (__smakebuf_r)
d:/dev/vhdl/program/nios2eds/bin/gnu/h-x86_64-mingw32/bin/../lib/gcc/nios2-elf/5.3.0/../../../../../H-x86_64-mingw32/nios2-elf/lib/mhw-mulx\libc.a(lib_a-memchr.o)
                              d:/dev/vhdl/program/nios2eds/bin/gnu/h-x86_64-mingw32/bin/../lib/gcc/nios2-elf/5.3.0/../../../../../H-x86_64-mingw32/nios2-elf/lib/mhw-mulx\libc.a(lib_a-vfprintf.o) (memchr)
d:/dev/vhdl/program/nios2eds/bin/gnu/h-x86_64-mingw32/bin/../lib/gcc/nios2-elf/5.3.0/../../../../../H-x86_64-mingw32/nios2-elf/lib/mhw-mulx\libc.a(lib_a-memcpy.o)
                              d:/dev/vhdl/program/nios2eds/bin/gnu/h-x86_64-mingw32/bin/../lib/gcc/nios2-elf/5.3.0/../../../../../H-x86_64-mingw32/nios2-elf/lib/mhw-mulx\libc.a(lib_a-dtoa.o) (memcpy)
d:/dev/vhdl/program/nios2eds/bin/gnu/h-x86_64-mingw32/bin/../lib/gcc/nios2-elf/5.3.0/../../../../../H-x86_64-mingw32/nios2-elf/lib/mhw-mulx\libc.a(lib_a-memset.o)
                              d:/dev/vhdl/program/nios2eds/bin/gnu/h-x86_64-mingw32/bin/../lib/gcc/nios2-elf/5.3.0/../../../../../H-x86_64-mingw32/nios2-elf/lib/mhw-mulx\libc.a(lib_a-findfp.o) (memset)
d:/dev/vhdl/program/nios2eds/bin/gnu/h-x86_64-mingw32/bin/../lib/gcc/nios2-elf/5.3.0/../../../../../H-x86_64-mingw32/nios2-elf/lib/mhw-mulx\libc.a(lib_a-mprec.o)
                              d:/dev/vhdl/program/nios2eds/bin/gnu/h-x86_64-mingw32/bin/../lib/gcc/nios2-elf/5.3.0/../../../../../H-x86_64-mingw32/nios2-elf/lib/mhw-mulx\libc.a(lib_a-dtoa.o) (_Balloc)
d:/dev/vhdl/program/nios2eds/bin/gnu/h-x86_64-mingw32/bin/../lib/gcc/nios2-elf/5.3.0/../../../../../H-x86_64-mingw32/nios2-elf/lib/mhw-mulx\libc.a(lib_a-s_fpclassify.o)
                              d:/dev/vhdl/program/nios2eds/bin/gnu/h-x86_64-mingw32/bin/../lib/gcc/nios2-elf/5.3.0/../../../../../H-x86_64-mingw32/nios2-elf/lib/mhw-mulx\libc.a(lib_a-vfprintf.o) (__fpclassifyd)
d:/dev/vhdl/program/nios2eds/bin/gnu/h-x86_64-mingw32/bin/../lib/gcc/nios2-elf/5.3.0/../../../../../H-x86_64-mingw32/nios2-elf/lib/mhw-mulx\libc.a(lib_a-stdio.o)
                              d:/dev/vhdl/program/nios2eds/bin/gnu/h-x86_64-mingw32/bin/../lib/gcc/nios2-elf/5.3.0/../../../../../H-x86_64-mingw32/nios2-elf/lib/mhw-mulx\libc.a(lib_a-findfp.o) (__sread)
d:/dev/vhdl/program/nios2eds/bin/gnu/h-x86_64-mingw32/bin/../lib/gcc/nios2-elf/5.3.0/../../../../../H-x86_64-mingw32/nios2-elf/lib/mhw-mulx\libc.a(lib_a-strcmp.o)
                              d:/dev/vhdl/program/nios2eds/bin/gnu/h-x86_64-mingw32/bin/../lib/gcc/nios2-elf/5.3.0/../../../../../H-x86_64-mingw32/nios2-elf/lib/mhw-mulx\libc.a(lib_a-locale.o) (strcmp)
d:/dev/vhdl/program/nios2eds/bin/gnu/h-x86_64-mingw32/bin/../lib/gcc/nios2-elf/5.3.0/../../../../../H-x86_64-mingw32/nios2-elf/lib/mhw-mulx\libc.a(lib_a-strlen.o)
                              d:/dev/vhdl/program/nios2eds/bin/gnu/h-x86_64-mingw32/bin/../lib/gcc/nios2-elf/5.3.0/../../../../../H-x86_64-mingw32/nios2-elf/lib/mhw-mulx\libc.a(lib_a-vfprintf.o) (strlen)
d:/dev/vhdl/program/nios2eds/bin/gnu/h-x86_64-mingw32/bin/../lib/gcc/nios2-elf/5.3.0/../../../../../H-x86_64-mingw32/nios2-elf/lib/mhw-mulx\libc.a(lib_a-vfiprintf.o)
                              d:/dev/vhdl/program/nios2eds/bin/gnu/h-x86_64-mingw32/bin/../lib/gcc/nios2-elf/5.3.0/../../../../../H-x86_64-mingw32/nios2-elf/lib/mhw-mulx\libc.a(lib_a-vfprintf.o) (__sprint_r)
d:/dev/vhdl/program/nios2eds/bin/gnu/h-x86_64-mingw32/bin/../lib/gcc/nios2-elf/5.3.0/../../../../../H-x86_64-mingw32/nios2-elf/lib/mhw-mulx\libc.a(lib_a-writer.o)
                              d:/dev/vhdl/program/nios2eds/bin/gnu/h-x86_64-mingw32/bin/../lib/gcc/nios2-elf/5.3.0/../../../../../H-x86_64-mingw32/nios2-elf/lib/mhw-mulx\libc.a(lib_a-stdio.o) (_write_r)
d:/dev/vhdl/program/nios2eds/bin/gnu/h-x86_64-mingw32/bin/../lib/gcc/nios2-elf/5.3.0/../../../../../H-x86_64-mingw32/nios2-elf/lib/mhw-mulx\libc.a(closer.o)
                              d:/dev/vhdl/program/nios2eds/bin/gnu/h-x86_64-mingw32/bin/../lib/gcc/nios2-elf/5.3.0/../../../../../H-x86_64-mingw32/nios2-elf/lib/mhw-mulx\libc.a(lib_a-stdio.o) (_close_r)
d:/dev/vhdl/program/nios2eds/bin/gnu/h-x86_64-mingw32/bin/../lib/gcc/nios2-elf/5.3.0/../../../../../H-x86_64-mingw32/nios2-elf/lib/mhw-mulx\libc.a(lib_a-callocr.o)
                              d:/dev/vhdl/program/nios2eds/bin/gnu/h-x86_64-mingw32/bin/../lib/gcc/nios2-elf/5.3.0/../../../../../H-x86_64-mingw32/nios2-elf/lib/mhw-mulx\libc.a(lib_a-mprec.o) (_calloc_r)
d:/dev/vhdl/program/nios2eds/bin/gnu/h-x86_64-mingw32/bin/../lib/gcc/nios2-elf/5.3.0/../../../../../H-x86_64-mingw32/nios2-elf/lib/mhw-mulx\libc.a(lib_a-fclose.o)
                              d:/dev/vhdl/program/nios2eds/bin/gnu/h-x86_64-mingw32/bin/../lib/gcc/nios2-elf/5.3.0/../../../../../H-x86_64-mingw32/nios2-elf/lib/mhw-mulx\libc.a(lib_a-findfp.o) (_fclose_r)
d:/dev/vhdl/program/nios2eds/bin/gnu/h-x86_64-mingw32/bin/../lib/gcc/nios2-elf/5.3.0/../../../../../H-x86_64-mingw32/nios2-elf/lib/mhw-mulx\libc.a(lib_a-fputwc.o)
                              d:/dev/vhdl/program/nios2eds/bin/gnu/h-x86_64-mingw32/bin/../lib/gcc/nios2-elf/5.3.0/../../../../../H-x86_64-mingw32/nios2-elf/lib/mhw-mulx\libc.a(lib_a-vfiprintf.o) (_fputwc_r)
d:/dev/vhdl/program/nios2eds/bin/gnu/h-x86_64-mingw32/bin/../lib/gcc/nios2-elf/5.3.0/../../../../../H-x86_64-mingw32/nios2-elf/lib/mhw-mulx\libc.a(lib_a-fstatr.o)
                              d:/dev/vhdl/program/nios2eds/bin/gnu/h-x86_64-mingw32/bin/../lib/gcc/nios2-elf/5.3.0/../../../../../H-x86_64-mingw32/nios2-elf/lib/mhw-mulx\libc.a(lib_a-makebuf.o) (_fstat_r)
d:/dev/vhdl/program/nios2eds/bin/gnu/h-x86_64-mingw32/bin/../lib/gcc/nios2-elf/5.3.0/../../../../../H-x86_64-mingw32/nios2-elf/lib/mhw-mulx\libc.a(lib_a-fvwrite.o)
                              d:/dev/vhdl/program/nios2eds/bin/gnu/h-x86_64-mingw32/bin/../lib/gcc/nios2-elf/5.3.0/../../../../../H-x86_64-mingw32/nios2-elf/lib/mhw-mulx\libc.a(lib_a-vfiprintf.o) (__sfvwrite_r)
d:/dev/vhdl/program/nios2eds/bin/gnu/h-x86_64-mingw32/bin/../lib/gcc/nios2-elf/5.3.0/../../../../../H-x86_64-mingw32/nios2-elf/lib/mhw-mulx\libc.a(lib_a-isattyr.o)
                              d:/dev/vhdl/program/nios2eds/bin/gnu/h-x86_64-mingw32/bin/../lib/gcc/nios2-elf/5.3.0/../../../../../H-x86_64-mingw32/nios2-elf/lib/mhw-mulx\libc.a(lib_a-makebuf.o) (_isatty_r)
d:/dev/vhdl/program/nios2eds/bin/gnu/h-x86_64-mingw32/bin/../lib/gcc/nios2-elf/5.3.0/../../../../../H-x86_64-mingw32/nios2-elf/lib/mhw-mulx\libc.a(lib_a-lseekr.o)
                              d:/dev/vhdl/program/nios2eds/bin/gnu/h-x86_64-mingw32/bin/../lib/gcc/nios2-elf/5.3.0/../../../../../H-x86_64-mingw32/nios2-elf/lib/mhw-mulx\libc.a(lib_a-stdio.o) (_lseek_r)
d:/dev/vhdl/program/nios2eds/bin/gnu/h-x86_64-mingw32/bin/../lib/gcc/nios2-elf/5.3.0/../../../../../H-x86_64-mingw32/nios2-elf/lib/mhw-mulx\libc.a(lib_a-memmove.o)
                              d:/dev/vhdl/program/nios2eds/bin/gnu/h-x86_64-mingw32/bin/../lib/gcc/nios2-elf/5.3.0/../../../../../H-x86_64-mingw32/nios2-elf/lib/mhw-mulx\libc.a(lib_a-fvwrite.o) (memmove)
d:/dev/vhdl/program/nios2eds/bin/gnu/h-x86_64-mingw32/bin/../lib/gcc/nios2-elf/5.3.0/../../../../../H-x86_64-mingw32/nios2-elf/lib/mhw-mulx\libc.a(lib_a-readr.o)
                              d:/dev/vhdl/program/nios2eds/bin/gnu/h-x86_64-mingw32/bin/../lib/gcc/nios2-elf/5.3.0/../../../../../H-x86_64-mingw32/nios2-elf/lib/mhw-mulx\libc.a(lib_a-stdio.o) (_read_r)
d:/dev/vhdl/program/nios2eds/bin/gnu/h-x86_64-mingw32/bin/../lib/gcc/nios2-elf/5.3.0/../../../../../H-x86_64-mingw32/nios2-elf/lib/mhw-mulx\libc.a(lib_a-reallocr.o)
                              d:/dev/vhdl/program/nios2eds/bin/gnu/h-x86_64-mingw32/bin/../lib/gcc/nios2-elf/5.3.0/../../../../../H-x86_64-mingw32/nios2-elf/lib/mhw-mulx\libc.a(lib_a-fvwrite.o) (_realloc_r)
d:/dev/vhdl/program/nios2eds/bin/gnu/h-x86_64-mingw32/bin/../lib/gcc/nios2-elf/5.3.0/../../../../../H-x86_64-mingw32/nios2-elf/lib/mhw-mulx\libc.a(lib_a-wbuf.o)
                              d:/dev/vhdl/program/nios2eds/bin/gnu/h-x86_64-mingw32/bin/../lib/gcc/nios2-elf/5.3.0/../../../../../H-x86_64-mingw32/nios2-elf/lib/mhw-mulx\libc.a(lib_a-fputwc.o) (__swbuf_r)
d:/dev/vhdl/program/nios2eds/bin/gnu/h-x86_64-mingw32/bin/../lib/gcc/nios2-elf/5.3.0/../../../../../H-x86_64-mingw32/nios2-elf/lib/mhw-mulx\libc.a(lib_a-wcrtomb.o)
                              d:/dev/vhdl/program/nios2eds/bin/gnu/h-x86_64-mingw32/bin/../lib/gcc/nios2-elf/5.3.0/../../../../../H-x86_64-mingw32/nios2-elf/lib/mhw-mulx\libc.a(lib_a-fputwc.o) (_wcrtomb_r)
d:/dev/vhdl/program/nios2eds/bin/gnu/h-x86_64-mingw32/bin/../lib/gcc/nios2-elf/5.3.0/../../../../../H-x86_64-mingw32/nios2-elf/lib/mhw-mulx\libc.a(lib_a-wctomb_r.o)
                              d:/dev/vhdl/program/nios2eds/bin/gnu/h-x86_64-mingw32/bin/../lib/gcc/nios2-elf/5.3.0/../../../../../H-x86_64-mingw32/nios2-elf/lib/mhw-mulx\libc.a(lib_a-wcrtomb.o) (__wctomb)
d:/dev/vhdl/program/nios2eds/bin/gnu/h-x86_64-mingw32/bin/../lib/gcc/nios2-elf/5.3.0/mhw-mulx\libgcc.a(_udivdi3.o)
                              d:/dev/vhdl/program/nios2eds/bin/gnu/h-x86_64-mingw32/bin/../lib/gcc/nios2-elf/5.3.0/../../../../../H-x86_64-mingw32/nios2-elf/lib/mhw-mulx\libc.a(lib_a-vfprintf.o) (__udivdi3)
d:/dev/vhdl/program/nios2eds/bin/gnu/h-x86_64-mingw32/bin/../lib/gcc/nios2-elf/5.3.0/mhw-mulx\libgcc.a(_umoddi3.o)
                              d:/dev/vhdl/program/nios2eds/bin/gnu/h-x86_64-mingw32/bin/../lib/gcc/nios2-elf/5.3.0/../../../../../H-x86_64-mingw32/nios2-elf/lib/mhw-mulx\libc.a(lib_a-vfprintf.o) (__umoddi3)
d:/dev/vhdl/program/nios2eds/bin/gnu/h-x86_64-mingw32/bin/../lib/gcc/nios2-elf/5.3.0/mhw-mulx\libgcc.a(lib2-divmod.o)
                              d:/dev/vhdl/program/nios2eds/bin/gnu/h-x86_64-mingw32/bin/../lib/gcc/nios2-elf/5.3.0/../../../../../H-x86_64-mingw32/nios2-elf/lib/mhw-mulx\libc.a(lib_a-vfprintf.o) (__divsi3)
d:/dev/vhdl/program/nios2eds/bin/gnu/h-x86_64-mingw32/bin/../lib/gcc/nios2-elf/5.3.0/mhw-mulx\libgcc.a(adddf3.o)
                              d:/dev/vhdl/program/nios2eds/bin/gnu/h-x86_64-mingw32/bin/../lib/gcc/nios2-elf/5.3.0/../../../../../H-x86_64-mingw32/nios2-elf/lib/mhw-mulx\libc.a(lib_a-dtoa.o) (__adddf3)
d:/dev/vhdl/program/nios2eds/bin/gnu/h-x86_64-mingw32/bin/../lib/gcc/nios2-elf/5.3.0/mhw-mulx\libgcc.a(divdf3.o)
                              d:/dev/vhdl/program/nios2eds/bin/gnu/h-x86_64-mingw32/bin/../lib/gcc/nios2-elf/5.3.0/../../../../../H-x86_64-mingw32/nios2-elf/lib/mhw-mulx\libc.a(lib_a-dtoa.o) (__divdf3)
d:/dev/vhdl/program/nios2eds/bin/gnu/h-x86_64-mingw32/bin/../lib/gcc/nios2-elf/5.3.0/mhw-mulx\libgcc.a(eqdf2.o)
                              d:/dev/vhdl/program/nios2eds/bin/gnu/h-x86_64-mingw32/bin/../lib/gcc/nios2-elf/5.3.0/../../../../../H-x86_64-mingw32/nios2-elf/lib/mhw-mulx\libc.a(lib_a-vfprintf.o) (__eqdf2)
d:/dev/vhdl/program/nios2eds/bin/gnu/h-x86_64-mingw32/bin/../lib/gcc/nios2-elf/5.3.0/mhw-mulx\libgcc.a(gedf2.o)
                              d:/dev/vhdl/program/nios2eds/bin/gnu/h-x86_64-mingw32/bin/../lib/gcc/nios2-elf/5.3.0/../../../../../H-x86_64-mingw32/nios2-elf/lib/mhw-mulx\libc.a(lib_a-dtoa.o) (__gedf2)
d:/dev/vhdl/program/nios2eds/bin/gnu/h-x86_64-mingw32/bin/../lib/gcc/nios2-elf/5.3.0/mhw-mulx\libgcc.a(ledf2.o)
                              d:/dev/vhdl/program/nios2eds/bin/gnu/h-x86_64-mingw32/bin/../lib/gcc/nios2-elf/5.3.0/../../../../../H-x86_64-mingw32/nios2-elf/lib/mhw-mulx\libc.a(lib_a-vfprintf.o) (__ltdf2)
d:/dev/vhdl/program/nios2eds/bin/gnu/h-x86_64-mingw32/bin/../lib/gcc/nios2-elf/5.3.0/mhw-mulx\libgcc.a(muldf3.o)
                              d:/dev/vhdl/program/nios2eds/bin/gnu/h-x86_64-mingw32/bin/../lib/gcc/nios2-elf/5.3.0/../../../../../H-x86_64-mingw32/nios2-elf/lib/mhw-mulx\libc.a(lib_a-dtoa.o) (__muldf3)
d:/dev/vhdl/program/nios2eds/bin/gnu/h-x86_64-mingw32/bin/../lib/gcc/nios2-elf/5.3.0/mhw-mulx\libgcc.a(subdf3.o)
                              d:/dev/vhdl/program/nios2eds/bin/gnu/h-x86_64-mingw32/bin/../lib/gcc/nios2-elf/5.3.0/../../../../../H-x86_64-mingw32/nios2-elf/lib/mhw-mulx\libc.a(lib_a-dtoa.o) (__subdf3)
d:/dev/vhdl/program/nios2eds/bin/gnu/h-x86_64-mingw32/bin/../lib/gcc/nios2-elf/5.3.0/mhw-mulx\libgcc.a(fixdfsi.o)
                              d:/dev/vhdl/program/nios2eds/bin/gnu/h-x86_64-mingw32/bin/../lib/gcc/nios2-elf/5.3.0/../../../../../H-x86_64-mingw32/nios2-elf/lib/mhw-mulx\libc.a(lib_a-dtoa.o) (__fixdfsi)
d:/dev/vhdl/program/nios2eds/bin/gnu/h-x86_64-mingw32/bin/../lib/gcc/nios2-elf/5.3.0/mhw-mulx\libgcc.a(floatsidf.o)
                              d:/dev/vhdl/program/nios2eds/bin/gnu/h-x86_64-mingw32/bin/../lib/gcc/nios2-elf/5.3.0/../../../../../H-x86_64-mingw32/nios2-elf/lib/mhw-mulx\libc.a(lib_a-dtoa.o) (__floatsidf)
d:/dev/vhdl/program/nios2eds/bin/gnu/h-x86_64-mingw32/bin/../lib/gcc/nios2-elf/5.3.0/mhw-mulx\libgcc.a(floatunsidf.o)
                              d:/dev/vhdl/program/nios2eds/bin/gnu/h-x86_64-mingw32/bin/../lib/gcc/nios2-elf/5.3.0/../../../../../H-x86_64-mingw32/nios2-elf/lib/mhw-mulx\libc.a(lib_a-dtoa.o) (__floatunsidf)
d:/dev/vhdl/program/nios2eds/bin/gnu/h-x86_64-mingw32/bin/../lib/gcc/nios2-elf/5.3.0/mhw-mulx\libgcc.a(_clz.o)
                              d:/dev/vhdl/program/nios2eds/bin/gnu/h-x86_64-mingw32/bin/../lib/gcc/nios2-elf/5.3.0/mhw-mulx\libgcc.a(_udivdi3.o) (__clz_tab)
d:/dev/vhdl/program/nios2eds/bin/gnu/h-x86_64-mingw32/bin/../lib/gcc/nios2-elf/5.3.0/mhw-mulx\libgcc.a(_clzsi2.o)
                              d:/dev/vhdl/program/nios2eds/bin/gnu/h-x86_64-mingw32/bin/../lib/gcc/nios2-elf/5.3.0/mhw-mulx\libgcc.a(adddf3.o) (__clzsi2)
D:/Dev/vhdl/dev/testNIOS/audioVisualisator_bsp/\libucosii_bsp.a(alt_close.o)
                              d:/dev/vhdl/program/nios2eds/bin/gnu/h-x86_64-mingw32/bin/../lib/gcc/nios2-elf/5.3.0/../../../../../H-x86_64-mingw32/nios2-elf/lib/mhw-mulx\libc.a(closer.o) (close)
D:/Dev/vhdl/dev/testNIOS/audioVisualisator_bsp/\libucosii_bsp.a(alt_dev.o)
                              D:/Dev/vhdl/dev/testNIOS/audioVisualisator_bsp/\libucosii_bsp.a(alt_close.o) (alt_fd_list)
D:/Dev/vhdl/dev/testNIOS/audioVisualisator_bsp/\libucosii_bsp.a(alt_errno.o)
                              D:/Dev/vhdl/dev/testNIOS/audioVisualisator_bsp/\libucosii_bsp.a(alt_close.o) (alt_errno)
D:/Dev/vhdl/dev/testNIOS/audioVisualisator_bsp/\libucosii_bsp.a(alt_fstat.o)
                              d:/dev/vhdl/program/nios2eds/bin/gnu/h-x86_64-mingw32/bin/../lib/gcc/nios2-elf/5.3.0/../../../../../H-x86_64-mingw32/nios2-elf/lib/mhw-mulx\libc.a(lib_a-fstatr.o) (fstat)
D:/Dev/vhdl/dev/testNIOS/audioVisualisator_bsp/\libucosii_bsp.a(alt_isatty.o)
                              d:/dev/vhdl/program/nios2eds/bin/gnu/h-x86_64-mingw32/bin/../lib/gcc/nios2-elf/5.3.0/../../../../../H-x86_64-mingw32/nios2-elf/lib/mhw-mulx\libc.a(lib_a-isattyr.o) (isatty)
D:/Dev/vhdl/dev/testNIOS/audioVisualisator_bsp/\libucosii_bsp.a(alt_load.o)
                              D:/Dev/vhdl/dev/testNIOS/audioVisualisator_bsp//obj/HAL/src/crt0.o (alt_load)
D:/Dev/vhdl/dev/testNIOS/audioVisualisator_bsp/\libucosii_bsp.a(alt_lseek.o)
                              d:/dev/vhdl/program/nios2eds/bin/gnu/h-x86_64-mingw32/bin/../lib/gcc/nios2-elf/5.3.0/../../../../../H-x86_64-mingw32/nios2-elf/lib/mhw-mulx\libc.a(lib_a-lseekr.o) (lseek)
D:/Dev/vhdl/dev/testNIOS/audioVisualisator_bsp/\libucosii_bsp.a(alt_main.o)
                              D:/Dev/vhdl/dev/testNIOS/audioVisualisator_bsp//obj/HAL/src/crt0.o (alt_main)
D:/Dev/vhdl/dev/testNIOS/audioVisualisator_bsp/\libucosii_bsp.a(alt_read.o)
                              d:/dev/vhdl/program/nios2eds/bin/gnu/h-x86_64-mingw32/bin/../lib/gcc/nios2-elf/5.3.0/../../../../../H-x86_64-mingw32/nios2-elf/lib/mhw-mulx\libc.a(lib_a-readr.o) (read)
D:/Dev/vhdl/dev/testNIOS/audioVisualisator_bsp/\libucosii_bsp.a(alt_release_fd.o)
                              D:/Dev/vhdl/dev/testNIOS/audioVisualisator_bsp/\libucosii_bsp.a(alt_close.o) (alt_release_fd)
D:/Dev/vhdl/dev/testNIOS/audioVisualisator_bsp/\libucosii_bsp.a(alt_sbrk.o)
                              d:/dev/vhdl/program/nios2eds/bin/gnu/h-x86_64-mingw32/bin/../lib/gcc/nios2-elf/5.3.0/../../../../../H-x86_64-mingw32/nios2-elf/lib/mhw-mulx\libc.a(lib_a-sbrkr.o) (sbrk)
D:/Dev/vhdl/dev/testNIOS/audioVisualisator_bsp/\libucosii_bsp.a(alt_write.o)
                              d:/dev/vhdl/program/nios2eds/bin/gnu/h-x86_64-mingw32/bin/../lib/gcc/nios2-elf/5.3.0/../../../../../H-x86_64-mingw32/nios2-elf/lib/mhw-mulx\libc.a(lib_a-writer.o) (write)
D:/Dev/vhdl/dev/testNIOS/audioVisualisator_bsp/\libucosii_bsp.a(alt_env_lock.o)
                              D:/Dev/vhdl/dev/testNIOS/audioVisualisator_bsp/\libucosii_bsp.a(alt_main.o) (alt_envsem)
D:/Dev/vhdl/dev/testNIOS/audioVisualisator_bsp/\libucosii_bsp.a(alt_malloc_lock.o)
                              D:/Dev/vhdl/dev/testNIOS/audioVisualisator_bsp/\libucosii_bsp.a(alt_main.o) (alt_heapsem)
D:/Dev/vhdl/dev/testNIOS/audioVisualisator_bsp/\libucosii_bsp.a(os_core.o)
                              D:/Dev/vhdl/dev/testNIOS/audioVisualisator_bsp/\libucosii_bsp.a(alt_malloc_lock.o) (OSRunning)
D:/Dev/vhdl/dev/testNIOS/audioVisualisator_bsp/\libucosii_bsp.a(os_dbg.o)
                              D:/Dev/vhdl/dev/testNIOS/audioVisualisator_bsp/\libucosii_bsp.a(os_core.o) (OSDebugInit)
D:/Dev/vhdl/dev/testNIOS/audioVisualisator_bsp/\libucosii_bsp.a(os_flag.o)
                              D:/Dev/vhdl/dev/testNIOS/audioVisualisator_bsp/\libucosii_bsp.a(os_core.o) (OS_FlagInit)
D:/Dev/vhdl/dev/testNIOS/audioVisualisator_bsp/\libucosii_bsp.a(os_mem.o)
                              D:/Dev/vhdl/dev/testNIOS/audioVisualisator_bsp/\libucosii_bsp.a(os_core.o) (OS_MemInit)
D:/Dev/vhdl/dev/testNIOS/audioVisualisator_bsp/\libucosii_bsp.a(os_q.o)
                              D:/Dev/vhdl/dev/testNIOS/audioVisualisator_bsp/\libucosii_bsp.a(os_core.o) (OS_QInit)
D:/Dev/vhdl/dev/testNIOS/audioVisualisator_bsp/\libucosii_bsp.a(os_sem.o)
                              D:/Dev/vhdl/dev/testNIOS/audioVisualisator_bsp/\libucosii_bsp.a(alt_main.o) (OSSemCreate)
D:/Dev/vhdl/dev/testNIOS/audioVisualisator_bsp/\libucosii_bsp.a(os_task.o)
                              obj/default/hello_ucosii.o (OSTaskCreateExt)
D:/Dev/vhdl/dev/testNIOS/audioVisualisator_bsp/\libucosii_bsp.a(os_time.o)
                              D:/Dev/vhdl/dev/testNIOS/audioVisualisator_bsp/\libucosii_bsp.a(os_core.o) (OSTimeDly)
D:/Dev/vhdl/dev/testNIOS/audioVisualisator_bsp/\libucosii_bsp.a(alt_sys_init.o)
                              D:/Dev/vhdl/dev/testNIOS/audioVisualisator_bsp/\libucosii_bsp.a(alt_main.o) (alt_irq_init)
D:/Dev/vhdl/dev/testNIOS/audioVisualisator_bsp/\libucosii_bsp.a(altera_avalon_jtag_uart_fd.o)
                              D:/Dev/vhdl/dev/testNIOS/audioVisualisator_bsp/\libucosii_bsp.a(alt_sys_init.o) (altera_avalon_jtag_uart_read_fd)
D:/Dev/vhdl/dev/testNIOS/audioVisualisator_bsp/\libucosii_bsp.a(altera_avalon_jtag_uart_init.o)
                              D:/Dev/vhdl/dev/testNIOS/audioVisualisator_bsp/\libucosii_bsp.a(alt_sys_init.o) (altera_avalon_jtag_uart_init)
D:/Dev/vhdl/dev/testNIOS/audioVisualisator_bsp/\libucosii_bsp.a(altera_avalon_jtag_uart_ioctl.o)
                              D:/Dev/vhdl/dev/testNIOS/audioVisualisator_bsp/\libucosii_bsp.a(altera_avalon_jtag_uart_fd.o) (altera_avalon_jtag_uart_ioctl)
D:/Dev/vhdl/dev/testNIOS/audioVisualisator_bsp/\libucosii_bsp.a(altera_avalon_jtag_uart_read.o)
                              D:/Dev/vhdl/dev/testNIOS/audioVisualisator_bsp/\libucosii_bsp.a(altera_avalon_jtag_uart_fd.o) (altera_avalon_jtag_uart_read)
D:/Dev/vhdl/dev/testNIOS/audioVisualisator_bsp/\libucosii_bsp.a(altera_avalon_jtag_uart_write.o)
                              D:/Dev/vhdl/dev/testNIOS/audioVisualisator_bsp/\libucosii_bsp.a(altera_avalon_jtag_uart_fd.o) (altera_avalon_jtag_uart_write)
D:/Dev/vhdl/dev/testNIOS/audioVisualisator_bsp/\libucosii_bsp.a(altera_avalon_timer_sc.o)
                              D:/Dev/vhdl/dev/testNIOS/audioVisualisator_bsp/\libucosii_bsp.a(alt_sys_init.o) (alt_avalon_timer_sc_init)
D:/Dev/vhdl/dev/testNIOS/audioVisualisator_bsp/\libucosii_bsp.a(altera_up_avalon_audio.o)
                              obj/default/hello_ucosii.o (alt_up_audio_open_dev)
D:/Dev/vhdl/dev/testNIOS/audioVisualisator_bsp/\libucosii_bsp.a(altera_up_avalon_character_lcd.o)
                              D:/Dev/vhdl/dev/testNIOS/audioVisualisator_bsp/\libucosii_bsp.a(alt_sys_init.o) (alt_up_character_lcd_init)
D:/Dev/vhdl/dev/testNIOS/audioVisualisator_bsp/\libucosii_bsp.a(altera_up_avalon_irda.o)
                              D:/Dev/vhdl/dev/testNIOS/audioVisualisator_bsp/\libucosii_bsp.a(alt_sys_init.o) (alt_up_irda_read_fd)
D:/Dev/vhdl/dev/testNIOS/audioVisualisator_bsp/\libucosii_bsp.a(altera_up_avalon_ps2.o)
                              D:/Dev/vhdl/dev/testNIOS/audioVisualisator_bsp/\libucosii_bsp.a(alt_sys_init.o) (alt_up_ps2_init)
D:/Dev/vhdl/dev/testNIOS/audioVisualisator_bsp/\libucosii_bsp.a(altera_up_avalon_rs232.o)
                              D:/Dev/vhdl/dev/testNIOS/audioVisualisator_bsp/\libucosii_bsp.a(alt_sys_init.o) (alt_up_rs232_read_fd)
D:/Dev/vhdl/dev/testNIOS/audioVisualisator_bsp/\libucosii_bsp.a(alt_alarm_start.o)
                              D:/Dev/vhdl/dev/testNIOS/audioVisualisator_bsp/\libucosii_bsp.a(altera_avalon_jtag_uart_init.o) (alt_alarm_start)
D:/Dev/vhdl/dev/testNIOS/audioVisualisator_bsp/\libucosii_bsp.a(alt_dcache_flush_all.o)
                              D:/Dev/vhdl/dev/testNIOS/audioVisualisator_bsp/\libucosii_bsp.a(alt_load.o) (alt_dcache_flush_all)
D:/Dev/vhdl/dev/testNIOS/audioVisualisator_bsp/\libucosii_bsp.a(alt_dev_llist_insert.o)
                              D:/Dev/vhdl/dev/testNIOS/audioVisualisator_bsp/\libucosii_bsp.a(alt_sys_init.o) (alt_dev_llist_insert)
D:/Dev/vhdl/dev/testNIOS/audioVisualisator_bsp/\libucosii_bsp.a(alt_do_ctors.o)
                              D:/Dev/vhdl/dev/testNIOS/audioVisualisator_bsp/\libucosii_bsp.a(alt_main.o) (_do_ctors)
D:/Dev/vhdl/dev/testNIOS/audioVisualisator_bsp/\libucosii_bsp.a(alt_do_dtors.o)
                              D:/Dev/vhdl/dev/testNIOS/audioVisualisator_bsp/\libucosii_bsp.a(alt_main.o) (_do_dtors)
D:/Dev/vhdl/dev/testNIOS/audioVisualisator_bsp/\libucosii_bsp.a(alt_find_dev.o)
                              D:/Dev/vhdl/dev/testNIOS/audioVisualisator_bsp/\libucosii_bsp.a(altera_up_avalon_audio.o) (alt_find_dev)
D:/Dev/vhdl/dev/testNIOS/audioVisualisator_bsp/\libucosii_bsp.a(alt_icache_flush_all.o)
                              D:/Dev/vhdl/dev/testNIOS/audioVisualisator_bsp/\libucosii_bsp.a(alt_load.o) (alt_icache_flush_all)
D:/Dev/vhdl/dev/testNIOS/audioVisualisator_bsp/\libucosii_bsp.a(alt_io_redirect.o)
                              D:/Dev/vhdl/dev/testNIOS/audioVisualisator_bsp/\libucosii_bsp.a(alt_main.o) (alt_io_redirect)
D:/Dev/vhdl/dev/testNIOS/audioVisualisator_bsp/\libucosii_bsp.a(alt_irq_register.o)
                              D:/Dev/vhdl/dev/testNIOS/audioVisualisator_bsp/\libucosii_bsp.a(altera_avalon_jtag_uart_init.o) (alt_irq_register)
D:/Dev/vhdl/dev/testNIOS/audioVisualisator_bsp/\libucosii_bsp.a(alt_irq_vars.o)
                              D:/Dev/vhdl/dev/testNIOS/audioVisualisator_bsp/\libucosii_bsp.a(alt_irq_register.o) (alt_irq_active)
D:/Dev/vhdl/dev/testNIOS/audioVisualisator_bsp/\libucosii_bsp.a(alt_open.o)
                              D:/Dev/vhdl/dev/testNIOS/audioVisualisator_bsp/\libucosii_bsp.a(alt_io_redirect.o) (open)
D:/Dev/vhdl/dev/testNIOS/audioVisualisator_bsp/\libucosii_bsp.a(alt_tick.o)
                              D:/Dev/vhdl/dev/testNIOS/audioVisualisator_bsp/\libucosii_bsp.a(altera_avalon_jtag_uart_init.o) (_alt_tick_rate)
D:/Dev/vhdl/dev/testNIOS/audioVisualisator_bsp/\libucosii_bsp.a(altera_nios2_gen2_irq.o)
                              D:/Dev/vhdl/dev/testNIOS/audioVisualisator_bsp/\libucosii_bsp.a(alt_sys_init.o) (altera_nios2_gen2_irq_init)
D:/Dev/vhdl/dev/testNIOS/audioVisualisator_bsp/\libucosii_bsp.a(os_cpu_a.o)
                              D:/Dev/vhdl/dev/testNIOS/audioVisualisator_bsp/\libucosii_bsp.a(os_core.o) (OSIntCtxSw)
D:/Dev/vhdl/dev/testNIOS/audioVisualisator_bsp/\libucosii_bsp.a(os_cpu_c.o)
                              D:/Dev/vhdl/dev/testNIOS/audioVisualisator_bsp/\libucosii_bsp.a(os_task.o) (OSTaskStkInit)
D:/Dev/vhdl/dev/testNIOS/audioVisualisator_bsp/\libucosii_bsp.a(alt_find_file.o)
                              D:/Dev/vhdl/dev/testNIOS/audioVisualisator_bsp/\libucosii_bsp.a(alt_open.o) (alt_find_file)
D:/Dev/vhdl/dev/testNIOS/audioVisualisator_bsp/\libucosii_bsp.a(alt_get_fd.o)
                              D:/Dev/vhdl/dev/testNIOS/audioVisualisator_bsp/\libucosii_bsp.a(alt_open.o) (alt_get_fd)
D:/Dev/vhdl/dev/testNIOS/audioVisualisator_bsp/\libucosii_bsp.a(alt_icache_flush.o)
                              D:/Dev/vhdl/dev/testNIOS/audioVisualisator_bsp/\libucosii_bsp.a(alt_icache_flush_all.o) (alt_icache_flush)
D:/Dev/vhdl/dev/testNIOS/audioVisualisator_bsp/\libucosii_bsp.a(alt_irq_entry.o)
                              D:/Dev/vhdl/dev/testNIOS/audioVisualisator_bsp/\libucosii_bsp.a(alt_irq_register.o) (alt_irq_entry)
D:/Dev/vhdl/dev/testNIOS/audioVisualisator_bsp/\libucosii_bsp.a(alt_irq_handler.o)
                              D:/Dev/vhdl/dev/testNIOS/audioVisualisator_bsp/\libucosii_bsp.a(alt_irq_register.o) (alt_irq)
D:/Dev/vhdl/dev/testNIOS/audioVisualisator_bsp/\libucosii_bsp.a(alt_exception_entry.o)
                              D:/Dev/vhdl/dev/testNIOS/audioVisualisator_bsp/\libucosii_bsp.a(alt_irq_entry.o) (alt_exception)
D:/Dev/vhdl/dev/testNIOS/audioVisualisator_bsp/\libucosii_bsp.a(alt_instruction_exception_entry.o)
                              D:/Dev/vhdl/dev/testNIOS/audioVisualisator_bsp/\libucosii_bsp.a(alt_exception_entry.o) (alt_instruction_exception_entry)
d:/dev/vhdl/program/nios2eds/bin/gnu/h-x86_64-mingw32/bin/../lib/gcc/nios2-elf/5.3.0/../../../../../H-x86_64-mingw32/nios2-elf/lib/mhw-mulx\libc.a(lib_a-atexit.o)
                              D:/Dev/vhdl/dev/testNIOS/audioVisualisator_bsp/\libucosii_bsp.a(alt_main.o) (atexit)
d:/dev/vhdl/program/nios2eds/bin/gnu/h-x86_64-mingw32/bin/../lib/gcc/nios2-elf/5.3.0/../../../../../H-x86_64-mingw32/nios2-elf/lib/mhw-mulx\libc.a(lib_a-exit.o)
                              D:/Dev/vhdl/dev/testNIOS/audioVisualisator_bsp/\libucosii_bsp.a(alt_main.o) (exit)
d:/dev/vhdl/program/nios2eds/bin/gnu/h-x86_64-mingw32/bin/../lib/gcc/nios2-elf/5.3.0/../../../../../H-x86_64-mingw32/nios2-elf/lib/mhw-mulx\libc.a(lib_a-memcmp.o)
                              D:/Dev/vhdl/dev/testNIOS/audioVisualisator_bsp/\libucosii_bsp.a(alt_find_dev.o) (memcmp)
d:/dev/vhdl/program/nios2eds/bin/gnu/h-x86_64-mingw32/bin/../lib/gcc/nios2-elf/5.3.0/../../../../../H-x86_64-mingw32/nios2-elf/lib/mhw-mulx\libc.a(lib_a-__atexit.o)
                              d:/dev/vhdl/program/nios2eds/bin/gnu/h-x86_64-mingw32/bin/../lib/gcc/nios2-elf/5.3.0/../../../../../H-x86_64-mingw32/nios2-elf/lib/mhw-mulx\libc.a(lib_a-atexit.o) (__register_exitproc)
d:/dev/vhdl/program/nios2eds/bin/gnu/h-x86_64-mingw32/bin/../lib/gcc/nios2-elf/5.3.0/../../../../../H-x86_64-mingw32/nios2-elf/lib/mhw-mulx\libc.a(lib_a-__call_atexit.o)
                              d:/dev/vhdl/program/nios2eds/bin/gnu/h-x86_64-mingw32/bin/../lib/gcc/nios2-elf/5.3.0/../../../../../H-x86_64-mingw32/nios2-elf/lib/mhw-mulx\libc.a(lib_a-exit.o) (__call_exitprocs)
D:/Dev/vhdl/dev/testNIOS/audioVisualisator_bsp/\libucosii_bsp.a(alt_exit.o)
                              d:/dev/vhdl/program/nios2eds/bin/gnu/h-x86_64-mingw32/bin/../lib/gcc/nios2-elf/5.3.0/../../../../../H-x86_64-mingw32/nios2-elf/lib/mhw-mulx\libc.a(lib_a-exit.o) (_exit)

Allocating common symbols
Common symbol       size              file

alt_irq             0x100             D:/Dev/vhdl/dev/testNIOS/audioVisualisator_bsp/\libucosii_bsp.a(alt_irq_handler.o)
colors              0x4               obj/default/src/Display.o
task1_stk           0x2000            obj/default/hello_ucosii.o
OSLockNesting       0x1               D:/Dev/vhdl/dev/testNIOS/audioVisualisator_bsp/\libucosii_bsp.a(os_core.o)
OSRunning           0x1               D:/Dev/vhdl/dev/testNIOS/audioVisualisator_bsp/\libucosii_bsp.a(os_core.o)
OSIdleCtr           0x4               D:/Dev/vhdl/dev/testNIOS/audioVisualisator_bsp/\libucosii_bsp.a(os_core.o)
OSPrioHighRdy       0x1               D:/Dev/vhdl/dev/testNIOS/audioVisualisator_bsp/\libucosii_bsp.a(os_core.o)
errno               0x4               d:/dev/vhdl/program/nios2eds/bin/gnu/h-x86_64-mingw32/bin/../lib/gcc/nios2-elf/5.3.0/../../../../../H-x86_64-mingw32/nios2-elf/lib/mhw-mulx\libc.a(lib_a-int_errno.o)
alt_heapsem         0x4               D:/Dev/vhdl/dev/testNIOS/audioVisualisator_bsp/\libucosii_bsp.a(alt_malloc_lock.o)
OSFlagTbl           0x370             D:/Dev/vhdl/dev/testNIOS/audioVisualisator_bsp/\libucosii_bsp.a(os_core.o)
OSPrioCur           0x1               D:/Dev/vhdl/dev/testNIOS/audioVisualisator_bsp/\libucosii_bsp.a(os_core.o)
OSTCBList           0x4               D:/Dev/vhdl/dev/testNIOS/audioVisualisator_bsp/\libucosii_bsp.a(os_core.o)
alt_fd_list_lock    0x4               D:/Dev/vhdl/dev/testNIOS/audioVisualisator_bsp/\libucosii_bsp.a(alt_dev.o)
OSMemTbl            0xc30             D:/Dev/vhdl/dev/testNIOS/audioVisualisator_bsp/\libucosii_bsp.a(os_core.o)
OSTickStepState     0x1               D:/Dev/vhdl/dev/testNIOS/audioVisualisator_bsp/\libucosii_bsp.a(os_core.o)
prevValues          0x4               obj/default/src/Display.o
OSTaskStatStk       0x800             D:/Dev/vhdl/dev/testNIOS/audioVisualisator_bsp/\libucosii_bsp.a(os_core.o)
OSCtxSwCtr          0x4               D:/Dev/vhdl/dev/testNIOS/audioVisualisator_bsp/\libucosii_bsp.a(os_core.o)
OSIdleCtrMax        0x4               D:/Dev/vhdl/dev/testNIOS/audioVisualisator_bsp/\libucosii_bsp.a(os_core.o)
OSTCBFreeList       0x4               D:/Dev/vhdl/dev/testNIOS/audioVisualisator_bsp/\libucosii_bsp.a(os_core.o)
OSCPUUsage          0x1               D:/Dev/vhdl/dev/testNIOS/audioVisualisator_bsp/\libucosii_bsp.a(os_core.o)
OSTaskCtr           0x1               D:/Dev/vhdl/dev/testNIOS/audioVisualisator_bsp/\libucosii_bsp.a(os_core.o)
OSMemFreeList       0x4               D:/Dev/vhdl/dev/testNIOS/audioVisualisator_bsp/\libucosii_bsp.a(os_core.o)
OSQTbl              0x1e0             D:/Dev/vhdl/dev/testNIOS/audioVisualisator_bsp/\libucosii_bsp.a(os_core.o)
OSTCBHighRdy        0x4               D:/Dev/vhdl/dev/testNIOS/audioVisualisator_bsp/\libucosii_bsp.a(os_core.o)
OSQFreeList         0x4               D:/Dev/vhdl/dev/testNIOS/audioVisualisator_bsp/\libucosii_bsp.a(os_core.o)
OSRdyGrp            0x1               D:/Dev/vhdl/dev/testNIOS/audioVisualisator_bsp/\libucosii_bsp.a(os_core.o)
OSRdyTbl            0x3               D:/Dev/vhdl/dev/testNIOS/audioVisualisator_bsp/\libucosii_bsp.a(os_core.o)
OSEventFreeList     0x4               D:/Dev/vhdl/dev/testNIOS/audioVisualisator_bsp/\libucosii_bsp.a(os_core.o)
OSIntNesting        0x1               D:/Dev/vhdl/dev/testNIOS/audioVisualisator_bsp/\libucosii_bsp.a(os_core.o)
OSTCBCur            0x4               D:/Dev/vhdl/dev/testNIOS/audioVisualisator_bsp/\libucosii_bsp.a(os_core.o)
OSTime              0x4               D:/Dev/vhdl/dev/testNIOS/audioVisualisator_bsp/\libucosii_bsp.a(os_core.o)
OSTaskIdleStk       0x800             D:/Dev/vhdl/dev/testNIOS/audioVisualisator_bsp/\libucosii_bsp.a(os_core.o)
OSEventTbl          0xb40             D:/Dev/vhdl/dev/testNIOS/audioVisualisator_bsp/\libucosii_bsp.a(os_core.o)
OSTCBTbl            0x510             D:/Dev/vhdl/dev/testNIOS/audioVisualisator_bsp/\libucosii_bsp.a(os_core.o)
OSFlagFreeList      0x4               D:/Dev/vhdl/dev/testNIOS/audioVisualisator_bsp/\libucosii_bsp.a(os_core.o)
OSStatRdy           0x1               D:/Dev/vhdl/dev/testNIOS/audioVisualisator_bsp/\libucosii_bsp.a(os_core.o)
OSTCBPrioTbl        0x54              D:/Dev/vhdl/dev/testNIOS/audioVisualisator_bsp/\libucosii_bsp.a(os_core.o)
alt_envsem          0x4               D:/Dev/vhdl/dev/testNIOS/audioVisualisator_bsp/\libucosii_bsp.a(alt_env_lock.o)
OSIdleCtrRun        0x4               D:/Dev/vhdl/dev/testNIOS/audioVisualisator_bsp/\libucosii_bsp.a(os_core.o)

Memory Configuration

Name             Origin             Length             Attributes
reset            0x0000000000000000 0x0000000000000020
SDRAM            0x0000000000000020 0x0000000003ffffe0
VGA_Subsystem_Char_Buf_Subsystem_Onchip_SRAM 0x0000000009000000 0x0000000000002000
*default*        0x0000000000000000 0xffffffffffffffff

Linker script and memory map

LOAD D:/Dev/vhdl/dev/testNIOS/audioVisualisator_bsp//obj/HAL/src/crt0.o
LOAD obj/default/hello_ucosii.o
LOAD obj/default/src/Audio.o
LOAD obj/default/src/Display.o
LOAD d:/dev/vhdl/program/nios2eds/bin/gnu/h-x86_64-mingw32/bin/../lib/gcc/nios2-elf/5.3.0/../../../../../H-x86_64-mingw32/nios2-elf/lib/mhw-mulx\libstdc++.a
LOAD d:/dev/vhdl/program/nios2eds/bin/gnu/h-x86_64-mingw32/bin/../lib/gcc/nios2-elf/5.3.0/../../../../../H-x86_64-mingw32/nios2-elf/lib/mhw-mulx\libm.a
LOAD d:/dev/vhdl/program/nios2eds/bin/gnu/h-x86_64-mingw32/bin/../lib/gcc/nios2-elf/5.3.0/mhw-mulx\libgcc.a
START GROUP
LOAD d:/dev/vhdl/program/nios2eds/bin/gnu/h-x86_64-mingw32/bin/../lib/gcc/nios2-elf/5.3.0/../../../../../H-x86_64-mingw32/nios2-elf/lib/mhw-mulx\libc.a
LOAD d:/dev/vhdl/program/nios2eds/bin/gnu/h-x86_64-mingw32/bin/../lib/gcc/nios2-elf/5.3.0/mhw-mulx\libgcc.a
LOAD D:/Dev/vhdl/dev/testNIOS/audioVisualisator_bsp/\libucosii_bsp.a
LOAD d:/dev/vhdl/program/nios2eds/bin/gnu/h-x86_64-mingw32/bin/../lib/gcc/nios2-elf/5.3.0/../../../../../H-x86_64-mingw32/nios2-elf/lib/mhw-mulx\libm.a
END GROUP
LOAD d:/dev/vhdl/program/nios2eds/bin/gnu/h-x86_64-mingw32/bin/../lib/gcc/nios2-elf/5.3.0/mhw-mulx\libgcc.a
                0x0000000000000000                __alt_mem_SDRAM = 0x0
                0x0000000009000000                __alt_mem_VGA_Subsystem_Char_Buf_Subsystem_Onchip_SRAM = 0x9000000

.entry          0x0000000000000000       0x20
 *(.entry)
 .entry         0x0000000000000000       0x20 D:/Dev/vhdl/dev/testNIOS/audioVisualisator_bsp//obj/HAL/src/crt0.o
                0x0000000000000000                __reset

.exceptions     0x0000000000000020      0x228
                0x0000000000000020                PROVIDE (__ram_exceptions_start, ABSOLUTE (.))
                0x0000000000000020                . = ALIGN (0x20)
 *(.irq)
 *(.exceptions.entry.label)
 .exceptions.entry.label
                0x0000000000000020        0x0 D:/Dev/vhdl/dev/testNIOS/audioVisualisator_bsp/\libucosii_bsp.a(alt_irq_entry.o)
                0x0000000000000020                alt_irq_entry
 .exceptions.entry.label
                0x0000000000000020        0x0 D:/Dev/vhdl/dev/testNIOS/audioVisualisator_bsp/\libucosii_bsp.a(alt_exception_entry.o)
                0x0000000000000020                alt_exception
 *(.exceptions.entry.user)
 *(.exceptions.entry.ecc_fatal)
 *(.exceptions.entry)
 .exceptions.entry
                0x0000000000000020       0x54 D:/Dev/vhdl/dev/testNIOS/audioVisualisator_bsp/\libucosii_bsp.a(alt_exception_entry.o)
 *(.exceptions.irqtest.user)
 *(.exceptions.irqtest)
 .exceptions.irqtest
                0x0000000000000074       0x10 D:/Dev/vhdl/dev/testNIOS/audioVisualisator_bsp/\libucosii_bsp.a(alt_irq_entry.o)
 *(.exceptions.irqhandler.user)
 *(.exceptions.irqhandler)
 .exceptions.irqhandler
                0x0000000000000084        0x4 D:/Dev/vhdl/dev/testNIOS/audioVisualisator_bsp/\libucosii_bsp.a(alt_irq_entry.o)
 *(.exceptions.irqreturn.user)
 *(.exceptions.irqreturn)
 .exceptions.irqreturn
                0x0000000000000088        0x4 D:/Dev/vhdl/dev/testNIOS/audioVisualisator_bsp/\libucosii_bsp.a(alt_irq_entry.o)
 *(.exceptions.notirq.label)
 .exceptions.notirq.label
                0x000000000000008c        0x0 D:/Dev/vhdl/dev/testNIOS/audioVisualisator_bsp/\libucosii_bsp.a(alt_irq_entry.o)
 *(.exceptions.notirq.user)
 *(.exceptions.notirq)
 .exceptions.notirq
                0x000000000000008c        0x8 D:/Dev/vhdl/dev/testNIOS/audioVisualisator_bsp/\libucosii_bsp.a(alt_exception_entry.o)
 *(.exceptions.soft.user)
 *(.exceptions.soft)
 *(.exceptions.unknown.user)
 *(.exceptions.unknown)
 .exceptions.unknown
                0x0000000000000094       0x14 D:/Dev/vhdl/dev/testNIOS/audioVisualisator_bsp/\libucosii_bsp.a(alt_exception_entry.o)
 *(.exceptions.exit.label)
 .exceptions.exit.label
                0x00000000000000a8        0x0 D:/Dev/vhdl/dev/testNIOS/audioVisualisator_bsp/\libucosii_bsp.a(alt_irq_entry.o)
 .exceptions.exit.label
                0x00000000000000a8        0x0 D:/Dev/vhdl/dev/testNIOS/audioVisualisator_bsp/\libucosii_bsp.a(alt_exception_entry.o)
 *(.exceptions.exit.user)
 *(.exceptions.exit)
 .exceptions.exit
                0x00000000000000a8       0x54 D:/Dev/vhdl/dev/testNIOS/audioVisualisator_bsp/\libucosii_bsp.a(alt_exception_entry.o)
 *(.exceptions)
 .exceptions    0x00000000000000fc       0xd8 D:/Dev/vhdl/dev/testNIOS/audioVisualisator_bsp/\libucosii_bsp.a(alt_irq_handler.o)
                0x00000000000000fc                alt_irq_handler
 .exceptions    0x00000000000001d4       0x74 D:/Dev/vhdl/dev/testNIOS/audioVisualisator_bsp/\libucosii_bsp.a(alt_instruction_exception_entry.o)
                0x00000000000001d4                alt_instruction_exception_entry
                0x0000000000000248                PROVIDE (__ram_exceptions_end, ABSOLUTE (.))
                0x0000000000000020                PROVIDE (__flash_exceptions_start, LOADADDR (.exceptions))

.text           0x0000000000000248    0x19c10
                [!provide]                        PROVIDE (stext, ABSOLUTE (.))
 *(.interp)
 *(.hash)
 *(.dynsym)
 *(.dynstr)
 *(.gnu.version)
 *(.gnu.version_d)
 *(.gnu.version_r)
 *(.rel.init)
 *(.rela.init)
 *(.rel.text .rel.text.* .rel.gnu.linkonce.t.*)
 *(.rela.text .rela.text.* .rela.gnu.linkonce.t.*)
 *(.rel.fini)
 *(.rela.fini)
 *(.rel.rodata .rel.rodata.* .rel.gnu.linkonce.r.*)
 *(.rela.rodata .rela.rodata.* .rela.gnu.linkonce.r.*)
 *(.rel.data .rel.data.* .rel.gnu.linkonce.d.*)
 *(.rela.data .rela.data.* .rela.gnu.linkonce.d.*)
 *(.rel.tdata .rel.tdata.* .rel.gnu.linkonce.td.*)
 *(.rela.tdata .rela.tdata.* .rela.gnu.linkonce.td.*)
 *(.rel.tbss .rel.tbss.* .rel.gnu.linkonce.tb.*)
 *(.rela.tbss .rela.tbss.* .rela.gnu.linkonce.tb.*)
 *(.rel.ctors)
 *(.rela.ctors)
 *(.rel.dtors)
 *(.rela.dtors)
 *(.rel.got)
 *(.rela.got)
 *(.rel.sdata .rel.sdata.* .rel.gnu.linkonce.s.*)
 *(.rela.sdata .rela.sdata.* .rela.gnu.linkonce.s.*)
 *(.rel.sbss .rel.sbss.* .rel.gnu.linkonce.sb.*)
 *(.rela.sbss .rela.sbss.* .rela.gnu.linkonce.sb.*)
 *(.rel.sdata2 .rel.sdata2.* .rel.gnu.linkonce.s2.*)
 *(.rela.sdata2 .rela.sdata2.* .rela.gnu.linkonce.s2.*)
 *(.rel.sbss2 .rel.sbss2.* .rel.gnu.linkonce.sb2.*)
 *(.rela.sbss2 .rela.sbss2.* .rela.gnu.linkonce.sb2.*)
 *(.rel.bss .rel.bss.* .rel.gnu.linkonce.b.*)
 *(.rela.bss .rela.bss.* .rela.gnu.linkonce.b.*)
 *(.rel.plt)
 *(.rela.plt)
 *(.rel.dyn)
 *(.init)
 *(.plt)
 *(.text .stub .text.* .gnu.linkonce.t.*)
 .text          0x0000000000000248       0x3c D:/Dev/vhdl/dev/testNIOS/audioVisualisator_bsp//obj/HAL/src/crt0.o
                0x0000000000000248                _start
 .text          0x0000000000000284      0x39c obj/default/hello_ucosii.o
                0x0000000000000284                task2
                0x00000000000003d4                task1
                0x00000000000005b4                main
 .text          0x0000000000000620      0x158 obj/default/src/Audio.o
                0x0000000000000620                AudioInit
                0x0000000000000660                AudioSample
 .text          0x0000000000000778      0x444 obj/default/src/Display.o
                0x0000000000000778                DisplayInit
                0x00000000000008d4                DisplayValues
                0x0000000000000ae8                DisplayBlock
 .text          0x0000000000000bbc        0x0 d:/dev/vhdl/program/nios2eds/bin/gnu/h-x86_64-mingw32/bin/../lib/gcc/nios2-elf/5.3.0/../../../../../H-x86_64-mingw32/nios2-elf/lib/mhw-mulx\libc.a(lib_a-malloc.o)
 .text.malloc   0x0000000000000bbc       0x14 d:/dev/vhdl/program/nios2eds/bin/gnu/h-x86_64-mingw32/bin/../lib/gcc/nios2-elf/5.3.0/../../../../../H-x86_64-mingw32/nios2-elf/lib/mhw-mulx\libc.a(lib_a-malloc.o)
                0x0000000000000bbc                malloc
 .text.free     0x0000000000000bd0       0x14 d:/dev/vhdl/program/nios2eds/bin/gnu/h-x86_64-mingw32/bin/../lib/gcc/nios2-elf/5.3.0/../../../../../H-x86_64-mingw32/nios2-elf/lib/mhw-mulx\libc.a(lib_a-malloc.o)
                0x0000000000000bd0                free
 .text          0x0000000000000be4        0x0 d:/dev/vhdl/program/nios2eds/bin/gnu/h-x86_64-mingw32/bin/../lib/gcc/nios2-elf/5.3.0/../../../../../H-x86_64-mingw32/nios2-elf/lib/mhw-mulx\libc.a(lib_a-mallocr.o)
 .text._malloc_r
                0x0000000000000be4      0x80c d:/dev/vhdl/program/nios2eds/bin/gnu/h-x86_64-mingw32/bin/../lib/gcc/nios2-elf/5.3.0/../../../../../H-x86_64-mingw32/nios2-elf/lib/mhw-mulx\libc.a(lib_a-mallocr.o)
                0x0000000000000be4                _malloc_r
 .text          0x00000000000013f0        0x0 d:/dev/vhdl/program/nios2eds/bin/gnu/h-x86_64-mingw32/bin/../lib/gcc/nios2-elf/5.3.0/../../../../../H-x86_64-mingw32/nios2-elf/lib/mhw-mulx\libc.a(lib_a-printf.o)
 .text._printf_r
                0x00000000000013f0       0x30 d:/dev/vhdl/program/nios2eds/bin/gnu/h-x86_64-mingw32/bin/../lib/gcc/nios2-elf/5.3.0/../../../../../H-x86_64-mingw32/nios2-elf/lib/mhw-mulx\libc.a(lib_a-printf.o)
                0x00000000000013f0                _printf_r
 .text.printf   0x0000000000001420       0x3c d:/dev/vhdl/program/nios2eds/bin/gnu/h-x86_64-mingw32/bin/../lib/gcc/nios2-elf/5.3.0/../../../../../H-x86_64-mingw32/nios2-elf/lib/mhw-mulx\libc.a(lib_a-printf.o)
                0x0000000000001420                printf
 .text          0x000000000000145c        0x0 d:/dev/vhdl/program/nios2eds/bin/gnu/h-x86_64-mingw32/bin/../lib/gcc/nios2-elf/5.3.0/../../../../../H-x86_64-mingw32/nios2-elf/lib/mhw-mulx\libc.a(lib_a-rand.o)
 .text.srand    0x000000000000145c       0x18 d:/dev/vhdl/program/nios2eds/bin/gnu/h-x86_64-mingw32/bin/../lib/gcc/nios2-elf/5.3.0/../../../../../H-x86_64-mingw32/nios2-elf/lib/mhw-mulx\libc.a(lib_a-rand.o)
                0x000000000000145c                srand
 .text.rand     0x0000000000001474       0x60 d:/dev/vhdl/program/nios2eds/bin/gnu/h-x86_64-mingw32/bin/../lib/gcc/nios2-elf/5.3.0/../../../../../H-x86_64-mingw32/nios2-elf/lib/mhw-mulx\libc.a(lib_a-rand.o)
                0x0000000000001474                rand
 .text          0x00000000000014d4        0x0 d:/dev/vhdl/program/nios2eds/bin/gnu/h-x86_64-mingw32/bin/../lib/gcc/nios2-elf/5.3.0/../../../../../H-x86_64-mingw32/nios2-elf/lib/mhw-mulx\libc.a(lib_a-sbrkr.o)
 .text._sbrk_r  0x00000000000014d4       0x54 d:/dev/vhdl/program/nios2eds/bin/gnu/h-x86_64-mingw32/bin/../lib/gcc/nios2-elf/5.3.0/../../../../../H-x86_64-mingw32/nios2-elf/lib/mhw-mulx\libc.a(lib_a-sbrkr.o)
                0x00000000000014d4                _sbrk_r
 .text          0x0000000000001528        0x0 d:/dev/vhdl/program/nios2eds/bin/gnu/h-x86_64-mingw32/bin/../lib/gcc/nios2-elf/5.3.0/../../../../../H-x86_64-mingw32/nios2-elf/lib/mhw-mulx\libc.a(lib_a-vfprintf.o)
 .text.___vfprintf_internal_r
                0x0000000000001528     0x21f8 d:/dev/vhdl/program/nios2eds/bin/gnu/h-x86_64-mingw32/bin/../lib/gcc/nios2-elf/5.3.0/../../../../../H-x86_64-mingw32/nios2-elf/lib/mhw-mulx\libc.a(lib_a-vfprintf.o)
                0x0000000000001528                ___vfprintf_internal_r
 .text.__vfprintf_internal
                0x0000000000003720       0x1c d:/dev/vhdl/program/nios2eds/bin/gnu/h-x86_64-mingw32/bin/../lib/gcc/nios2-elf/5.3.0/../../../../../H-x86_64-mingw32/nios2-elf/lib/mhw-mulx\libc.a(lib_a-vfprintf.o)
                0x0000000000003720                __vfprintf_internal
 .text.__sbprintf
                0x000000000000373c       0xbc d:/dev/vhdl/program/nios2eds/bin/gnu/h-x86_64-mingw32/bin/../lib/gcc/nios2-elf/5.3.0/../../../../../H-x86_64-mingw32/nios2-elf/lib/mhw-mulx\libc.a(lib_a-vfprintf.o)
 .text          0x00000000000037f8        0x0 d:/dev/vhdl/program/nios2eds/bin/gnu/h-x86_64-mingw32/bin/../lib/gcc/nios2-elf/5.3.0/../../../../../H-x86_64-mingw32/nios2-elf/lib/mhw-mulx\libc.a(lib_a-wsetup.o)
 .text.__swsetup_r
                0x00000000000037f8      0x154 d:/dev/vhdl/program/nios2eds/bin/gnu/h-x86_64-mingw32/bin/../lib/gcc/nios2-elf/5.3.0/../../../../../H-x86_64-mingw32/nios2-elf/lib/mhw-mulx\libc.a(lib_a-wsetup.o)
                0x00000000000037f8                __swsetup_r
 .text          0x000000000000394c        0x0 d:/dev/vhdl/program/nios2eds/bin/gnu/h-x86_64-mingw32/bin/../lib/gcc/nios2-elf/5.3.0/../../../../../H-x86_64-mingw32/nios2-elf/lib/mhw-mulx\libc.a(lib_a-dtoa.o)
 .text.quorem   0x000000000000394c      0x200 d:/dev/vhdl/program/nios2eds/bin/gnu/h-x86_64-mingw32/bin/../lib/gcc/nios2-elf/5.3.0/../../../../../H-x86_64-mingw32/nios2-elf/lib/mhw-mulx\libc.a(lib_a-dtoa.o)
 .text._dtoa_r  0x0000000000003b4c     0x1688 d:/dev/vhdl/program/nios2eds/bin/gnu/h-x86_64-mingw32/bin/../lib/gcc/nios2-elf/5.3.0/../../../../../H-x86_64-mingw32/nios2-elf/lib/mhw-mulx\libc.a(lib_a-dtoa.o)
                0x0000000000003b4c                _dtoa_r
 .text          0x00000000000051d4        0x0 d:/dev/vhdl/program/nios2eds/bin/gnu/h-x86_64-mingw32/bin/../lib/gcc/nios2-elf/5.3.0/../../../../../H-x86_64-mingw32/nios2-elf/lib/mhw-mulx\libc.a(lib_a-fflush.o)
 .text.__sflush_r
                0x00000000000051d4      0x21c d:/dev/vhdl/program/nios2eds/bin/gnu/h-x86_64-mingw32/bin/../lib/gcc/nios2-elf/5.3.0/../../../../../H-x86_64-mingw32/nios2-elf/lib/mhw-mulx\libc.a(lib_a-fflush.o)
                0x00000000000051d4                __sflush_r
 .text._fflush_r
                0x00000000000053f0       0x5c d:/dev/vhdl/program/nios2eds/bin/gnu/h-x86_64-mingw32/bin/../lib/gcc/nios2-elf/5.3.0/../../../../../H-x86_64-mingw32/nios2-elf/lib/mhw-mulx\libc.a(lib_a-fflush.o)
                0x00000000000053f0                _fflush_r
 .text.fflush   0x000000000000544c       0x30 d:/dev/vhdl/program/nios2eds/bin/gnu/h-x86_64-mingw32/bin/../lib/gcc/nios2-elf/5.3.0/../../../../../H-x86_64-mingw32/nios2-elf/lib/mhw-mulx\libc.a(lib_a-fflush.o)
                0x000000000000544c                fflush
 .text          0x000000000000547c        0x0 d:/dev/vhdl/program/nios2eds/bin/gnu/h-x86_64-mingw32/bin/../lib/gcc/nios2-elf/5.3.0/../../../../../H-x86_64-mingw32/nios2-elf/lib/mhw-mulx\libc.a(lib_a-findfp.o)
 .text.__fp_unlock
                0x000000000000547c        0x8 d:/dev/vhdl/program/nios2eds/bin/gnu/h-x86_64-mingw32/bin/../lib/gcc/nios2-elf/5.3.0/../../../../../H-x86_64-mingw32/nios2-elf/lib/mhw-mulx\libc.a(lib_a-findfp.o)
 .text._cleanup_r
                0x0000000000005484        0xc d:/dev/vhdl/program/nios2eds/bin/gnu/h-x86_64-mingw32/bin/../lib/gcc/nios2-elf/5.3.0/../../../../../H-x86_64-mingw32/nios2-elf/lib/mhw-mulx\libc.a(lib_a-findfp.o)
                0x0000000000005484                _cleanup_r
 .text.__sinit.part.1
                0x0000000000005490      0x19c d:/dev/vhdl/program/nios2eds/bin/gnu/h-x86_64-mingw32/bin/../lib/gcc/nios2-elf/5.3.0/../../../../../H-x86_64-mingw32/nios2-elf/lib/mhw-mulx\libc.a(lib_a-findfp.o)
 .text.__fp_lock
                0x000000000000562c        0x8 d:/dev/vhdl/program/nios2eds/bin/gnu/h-x86_64-mingw32/bin/../lib/gcc/nios2-elf/5.3.0/../../../../../H-x86_64-mingw32/nios2-elf/lib/mhw-mulx\libc.a(lib_a-findfp.o)
 .text.__sfmoreglue
                0x0000000000005634       0x68 d:/dev/vhdl/program/nios2eds/bin/gnu/h-x86_64-mingw32/bin/../lib/gcc/nios2-elf/5.3.0/../../../../../H-x86_64-mingw32/nios2-elf/lib/mhw-mulx\libc.a(lib_a-findfp.o)
                0x0000000000005634                __sfmoreglue
 .text.__sfp    0x000000000000569c      0x118 d:/dev/vhdl/program/nios2eds/bin/gnu/h-x86_64-mingw32/bin/../lib/gcc/nios2-elf/5.3.0/../../../../../H-x86_64-mingw32/nios2-elf/lib/mhw-mulx\libc.a(lib_a-findfp.o)
                0x000000000000569c                __sfp
 .text._cleanup
                0x00000000000057b4       0x18 d:/dev/vhdl/program/nios2eds/bin/gnu/h-x86_64-mingw32/bin/../lib/gcc/nios2-elf/5.3.0/../../../../../H-x86_64-mingw32/nios2-elf/lib/mhw-mulx\libc.a(lib_a-findfp.o)
                0x00000000000057b4                _cleanup
 .text.__sinit  0x00000000000057cc       0x10 d:/dev/vhdl/program/nios2eds/bin/gnu/h-x86_64-mingw32/bin/../lib/gcc/nios2-elf/5.3.0/../../../../../H-x86_64-mingw32/nios2-elf/lib/mhw-mulx\libc.a(lib_a-findfp.o)
                0x00000000000057cc                __sinit
 .text.__sfp_lock_acquire
                0x00000000000057dc        0x4 d:/dev/vhdl/program/nios2eds/bin/gnu/h-x86_64-mingw32/bin/../lib/gcc/nios2-elf/5.3.0/../../../../../H-x86_64-mingw32/nios2-elf/lib/mhw-mulx\libc.a(lib_a-findfp.o)
                0x00000000000057dc                __sfp_lock_acquire
 .text.__sfp_lock_release
                0x00000000000057e0        0x4 d:/dev/vhdl/program/nios2eds/bin/gnu/h-x86_64-mingw32/bin/../lib/gcc/nios2-elf/5.3.0/../../../../../H-x86_64-mingw32/nios2-elf/lib/mhw-mulx\libc.a(lib_a-findfp.o)
                0x00000000000057e0                __sfp_lock_release
 .text.__sinit_lock_acquire
                0x00000000000057e4        0x4 d:/dev/vhdl/program/nios2eds/bin/gnu/h-x86_64-mingw32/bin/../lib/gcc/nios2-elf/5.3.0/../../../../../H-x86_64-mingw32/nios2-elf/lib/mhw-mulx\libc.a(lib_a-findfp.o)
                0x00000000000057e4                __sinit_lock_acquire
 .text.__sinit_lock_release
                0x00000000000057e8        0x4 d:/dev/vhdl/program/nios2eds/bin/gnu/h-x86_64-mingw32/bin/../lib/gcc/nios2-elf/5.3.0/../../../../../H-x86_64-mingw32/nios2-elf/lib/mhw-mulx\libc.a(lib_a-findfp.o)
                0x00000000000057e8                __sinit_lock_release
 .text.__fp_lock_all
                0x00000000000057ec       0x18 d:/dev/vhdl/program/nios2eds/bin/gnu/h-x86_64-mingw32/bin/../lib/gcc/nios2-elf/5.3.0/../../../../../H-x86_64-mingw32/nios2-elf/lib/mhw-mulx\libc.a(lib_a-findfp.o)
                0x00000000000057ec                __fp_lock_all
 .text.__fp_unlock_all
                0x0000000000005804       0x18 d:/dev/vhdl/program/nios2eds/bin/gnu/h-x86_64-mingw32/bin/../lib/gcc/nios2-elf/5.3.0/../../../../../H-x86_64-mingw32/nios2-elf/lib/mhw-mulx\libc.a(lib_a-findfp.o)
                0x0000000000005804                __fp_unlock_all
 .text          0x000000000000581c        0x0 d:/dev/vhdl/program/nios2eds/bin/gnu/h-x86_64-mingw32/bin/../lib/gcc/nios2-elf/5.3.0/../../../../../H-x86_64-mingw32/nios2-elf/lib/mhw-mulx\libc.a(lib_a-freer.o)
 .text._malloc_trim_r
                0x000000000000581c      0x124 d:/dev/vhdl/program/nios2eds/bin/gnu/h-x86_64-mingw32/bin/../lib/gcc/nios2-elf/5.3.0/../../../../../H-x86_64-mingw32/nios2-elf/lib/mhw-mulx\libc.a(lib_a-freer.o)
                0x000000000000581c                _malloc_trim_r
 .text._free_r  0x0000000000005940      0x310 d:/dev/vhdl/program/nios2eds/bin/gnu/h-x86_64-mingw32/bin/../lib/gcc/nios2-elf/5.3.0/../../../../../H-x86_64-mingw32/nios2-elf/lib/mhw-mulx\libc.a(lib_a-freer.o)
                0x0000000000005940                _free_r
 .text          0x0000000000005c50        0x0 d:/dev/vhdl/program/nios2eds/bin/gnu/h-x86_64-mingw32/bin/../lib/gcc/nios2-elf/5.3.0/../../../../../H-x86_64-mingw32/nios2-elf/lib/mhw-mulx\libc.a(lib_a-fwalk.o)
 .text._fwalk   0x0000000000005c50       0xc4 d:/dev/vhdl/program/nios2eds/bin/gnu/h-x86_64-mingw32/bin/../lib/gcc/nios2-elf/5.3.0/../../../../../H-x86_64-mingw32/nios2-elf/lib/mhw-mulx\libc.a(lib_a-fwalk.o)
                0x0000000000005c50                _fwalk
 .text._fwalk_reent
                0x0000000000005d14       0xc4 d:/dev/vhdl/program/nios2eds/bin/gnu/h-x86_64-mingw32/bin/../lib/gcc/nios2-elf/5.3.0/../../../../../H-x86_64-mingw32/nios2-elf/lib/mhw-mulx\libc.a(lib_a-fwalk.o)
                0x0000000000005d14                _fwalk_reent
 .text          0x0000000000005dd8        0x0 d:/dev/vhdl/program/nios2eds/bin/gnu/h-x86_64-mingw32/bin/../lib/gcc/nios2-elf/5.3.0/../../../../../H-x86_64-mingw32/nios2-elf/lib/mhw-mulx\libc.a(lib_a-impure.o)
 .text          0x0000000000005dd8        0x0 d:/dev/vhdl/program/nios2eds/bin/gnu/h-x86_64-mingw32/bin/../lib/gcc/nios2-elf/5.3.0/../../../../../H-x86_64-mingw32/nios2-elf/lib/mhw-mulx\libc.a(lib_a-int_errno.o)
 .text          0x0000000000005dd8        0x0 d:/dev/vhdl/program/nios2eds/bin/gnu/h-x86_64-mingw32/bin/../lib/gcc/nios2-elf/5.3.0/../../../../../H-x86_64-mingw32/nios2-elf/lib/mhw-mulx\libc.a(lib_a-locale.o)
 .text._setlocale_r
                0x0000000000005dd8       0x7c d:/dev/vhdl/program/nios2eds/bin/gnu/h-x86_64-mingw32/bin/../lib/gcc/nios2-elf/5.3.0/../../../../../H-x86_64-mingw32/nios2-elf/lib/mhw-mulx\libc.a(lib_a-locale.o)
                0x0000000000005dd8                _setlocale_r
 .text.__locale_charset
                0x0000000000005e54        0xc d:/dev/vhdl/program/nios2eds/bin/gnu/h-x86_64-mingw32/bin/../lib/gcc/nios2-elf/5.3.0/../../../../../H-x86_64-mingw32/nios2-elf/lib/mhw-mulx\libc.a(lib_a-locale.o)
                0x0000000000005e54                __locale_charset
 .text.__locale_mb_cur_max
                0x0000000000005e60       0x10 d:/dev/vhdl/program/nios2eds/bin/gnu/h-x86_64-mingw32/bin/../lib/gcc/nios2-elf/5.3.0/../../../../../H-x86_64-mingw32/nios2-elf/lib/mhw-mulx\libc.a(lib_a-locale.o)
                0x0000000000005e60                __locale_mb_cur_max
 .text.__locale_msgcharset
                0x0000000000005e70        0xc d:/dev/vhdl/program/nios2eds/bin/gnu/h-x86_64-mingw32/bin/../lib/gcc/nios2-elf/5.3.0/../../../../../H-x86_64-mingw32/nios2-elf/lib/mhw-mulx\libc.a(lib_a-locale.o)
                0x0000000000005e70                __locale_msgcharset
 .text.__locale_cjk_lang
                0x0000000000005e7c        0x8 d:/dev/vhdl/program/nios2eds/bin/gnu/h-x86_64-mingw32/bin/../lib/gcc/nios2-elf/5.3.0/../../../../../H-x86_64-mingw32/nios2-elf/lib/mhw-mulx\libc.a(lib_a-locale.o)
                0x0000000000005e7c                __locale_cjk_lang
 .text._localeconv_r
                0x0000000000005e84        0xc d:/dev/vhdl/program/nios2eds/bin/gnu/h-x86_64-mingw32/bin/../lib/gcc/nios2-elf/5.3.0/../../../../../H-x86_64-mingw32/nios2-elf/lib/mhw-mulx\libc.a(lib_a-locale.o)
                0x0000000000005e84                _localeconv_r
 .text.setlocale
                0x0000000000005e90       0x18 d:/dev/vhdl/program/nios2eds/bin/gnu/h-x86_64-mingw32/bin/../lib/gcc/nios2-elf/5.3.0/../../../../../H-x86_64-mingw32/nios2-elf/lib/mhw-mulx\libc.a(lib_a-locale.o)
                0x0000000000005e90                setlocale
 .text.localeconv
                0x0000000000005ea8        0xc d:/dev/vhdl/program/nios2eds/bin/gnu/h-x86_64-mingw32/bin/../lib/gcc/nios2-elf/5.3.0/../../../../../H-x86_64-mingw32/nios2-elf/lib/mhw-mulx\libc.a(lib_a-locale.o)
                0x0000000000005ea8                localeconv
 .text          0x0000000000005eb4        0x0 d:/dev/vhdl/program/nios2eds/bin/gnu/h-x86_64-mingw32/bin/../lib/gcc/nios2-elf/5.3.0/../../../../../H-x86_64-mingw32/nios2-elf/lib/mhw-mulx\libc.a(lib_a-makebuf.o)
 .text.__smakebuf_r
                0x0000000000005eb4      0x1bc d:/dev/vhdl/program/nios2eds/bin/gnu/h-x86_64-mingw32/bin/../lib/gcc/nios2-elf/5.3.0/../../../../../H-x86_64-mingw32/nios2-elf/lib/mhw-mulx\libc.a(lib_a-makebuf.o)
                0x0000000000005eb4                __smakebuf_r
 .text          0x0000000000006070        0x0 d:/dev/vhdl/program/nios2eds/bin/gnu/h-x86_64-mingw32/bin/../lib/gcc/nios2-elf/5.3.0/../../../../../H-x86_64-mingw32/nios2-elf/lib/mhw-mulx\libc.a(lib_a-memchr.o)
 .text.memchr   0x0000000000006070       0xe4 d:/dev/vhdl/program/nios2eds/bin/gnu/h-x86_64-mingw32/bin/../lib/gcc/nios2-elf/5.3.0/../../../../../H-x86_64-mingw32/nios2-elf/lib/mhw-mulx\libc.a(lib_a-memchr.o)
                0x0000000000006070                memchr
 .text          0x0000000000006154        0x0 d:/dev/vhdl/program/nios2eds/bin/gnu/h-x86_64-mingw32/bin/../lib/gcc/nios2-elf/5.3.0/../../../../../H-x86_64-mingw32/nios2-elf/lib/mhw-mulx\libc.a(lib_a-memcpy.o)
 .text.memcpy   0x0000000000006154      0x148 d:/dev/vhdl/program/nios2eds/bin/gnu/h-x86_64-mingw32/bin/../lib/gcc/nios2-elf/5.3.0/../../../../../H-x86_64-mingw32/nios2-elf/lib/mhw-mulx\libc.a(lib_a-memcpy.o)
                0x0000000000006154                memcpy
 .text          0x000000000000629c        0x0 d:/dev/vhdl/program/nios2eds/bin/gnu/h-x86_64-mingw32/bin/../lib/gcc/nios2-elf/5.3.0/../../../../../H-x86_64-mingw32/nios2-elf/lib/mhw-mulx\libc.a(lib_a-memset.o)
 .text.memset   0x000000000000629c      0x128 d:/dev/vhdl/program/nios2eds/bin/gnu/h-x86_64-mingw32/bin/../lib/gcc/nios2-elf/5.3.0/../../../../../H-x86_64-mingw32/nios2-elf/lib/mhw-mulx\libc.a(lib_a-memset.o)
                0x000000000000629c                memset
 .text          0x00000000000063c4        0x0 d:/dev/vhdl/program/nios2eds/bin/gnu/h-x86_64-mingw32/bin/../lib/gcc/nios2-elf/5.3.0/../../../../../H-x86_64-mingw32/nios2-elf/lib/mhw-mulx\libc.a(lib_a-mprec.o)
 .text._Balloc  0x00000000000063c4       0xa8 d:/dev/vhdl/program/nios2eds/bin/gnu/h-x86_64-mingw32/bin/../lib/gcc/nios2-elf/5.3.0/../../../../../H-x86_64-mingw32/nios2-elf/lib/mhw-mulx\libc.a(lib_a-mprec.o)
                0x00000000000063c4                _Balloc
 .text._Bfree   0x000000000000646c       0x28 d:/dev/vhdl/program/nios2eds/bin/gnu/h-x86_64-mingw32/bin/../lib/gcc/nios2-elf/5.3.0/../../../../../H-x86_64-mingw32/nios2-elf/lib/mhw-mulx\libc.a(lib_a-mprec.o)
                0x000000000000646c                _Bfree
 .text.__multadd
                0x0000000000006494      0x120 d:/dev/vhdl/program/nios2eds/bin/gnu/h-x86_64-mingw32/bin/../lib/gcc/nios2-elf/5.3.0/../../../../../H-x86_64-mingw32/nios2-elf/lib/mhw-mulx\libc.a(lib_a-mprec.o)
                0x0000000000006494                __multadd
 .text.__s2b    0x00000000000065b4      0x104 d:/dev/vhdl/program/nios2eds/bin/gnu/h-x86_64-mingw32/bin/../lib/gcc/nios2-elf/5.3.0/../../../../../H-x86_64-mingw32/nios2-elf/lib/mhw-mulx\libc.a(lib_a-mprec.o)
                0x00000000000065b4                __s2b
 .text.__hi0bits
                0x00000000000066b8       0x68 d:/dev/vhdl/program/nios2eds/bin/gnu/h-x86_64-mingw32/bin/../lib/gcc/nios2-elf/5.3.0/../../../../../H-x86_64-mingw32/nios2-elf/lib/mhw-mulx\libc.a(lib_a-mprec.o)
                0x00000000000066b8                __hi0bits
 .text.__lo0bits
                0x0000000000006720       0xb0 d:/dev/vhdl/program/nios2eds/bin/gnu/h-x86_64-mingw32/bin/../lib/gcc/nios2-elf/5.3.0/../../../../../H-x86_64-mingw32/nios2-elf/lib/mhw-mulx\libc.a(lib_a-mprec.o)
                0x0000000000006720                __lo0bits
 .text.__i2b    0x00000000000067d0       0x3c d:/dev/vhdl/program/nios2eds/bin/gnu/h-x86_64-mingw32/bin/../lib/gcc/nios2-elf/5.3.0/../../../../../H-x86_64-mingw32/nios2-elf/lib/mhw-mulx\libc.a(lib_a-mprec.o)
                0x00000000000067d0                __i2b
 .text.__multiply
                0x000000000000680c      0x1f8 d:/dev/vhdl/program/nios2eds/bin/gnu/h-x86_64-mingw32/bin/../lib/gcc/nios2-elf/5.3.0/../../../../../H-x86_64-mingw32/nios2-elf/lib/mhw-mulx\libc.a(lib_a-mprec.o)
                0x000000000000680c                __multiply
 .text.__pow5mult
                0x0000000000006a04      0x140 d:/dev/vhdl/program/nios2eds/bin/gnu/h-x86_64-mingw32/bin/../lib/gcc/nios2-elf/5.3.0/../../../../../H-x86_64-mingw32/nios2-elf/lib/mhw-mulx\libc.a(lib_a-mprec.o)
                0x0000000000006a04                __pow5mult
 .text.__lshift
                0x0000000000006b44      0x148 d:/dev/vhdl/program/nios2eds/bin/gnu/h-x86_64-mingw32/bin/../lib/gcc/nios2-elf/5.3.0/../../../../../H-x86_64-mingw32/nios2-elf/lib/mhw-mulx\libc.a(lib_a-mprec.o)
                0x0000000000006b44                __lshift
 .text.__mcmp   0x0000000000006c8c       0x60 d:/dev/vhdl/program/nios2eds/bin/gnu/h-x86_64-mingw32/bin/../lib/gcc/nios2-elf/5.3.0/../../../../../H-x86_64-mingw32/nios2-elf/lib/mhw-mulx\libc.a(lib_a-mprec.o)
                0x0000000000006c8c                __mcmp
 .text.__mdiff  0x0000000000006cec      0x1fc d:/dev/vhdl/program/nios2eds/bin/gnu/h-x86_64-mingw32/bin/../lib/gcc/nios2-elf/5.3.0/../../../../../H-x86_64-mingw32/nios2-elf/lib/mhw-mulx\libc.a(lib_a-mprec.o)
                0x0000000000006cec                __mdiff
 .text.__ulp    0x0000000000006ee8       0x64 d:/dev/vhdl/program/nios2eds/bin/gnu/h-x86_64-mingw32/bin/../lib/gcc/nios2-elf/5.3.0/../../../../../H-x86_64-mingw32/nios2-elf/lib/mhw-mulx\libc.a(lib_a-mprec.o)
                0x0000000000006ee8                __ulp
 .text.__b2d    0x0000000000006f4c      0x10c d:/dev/vhdl/program/nios2eds/bin/gnu/h-x86_64-mingw32/bin/../lib/gcc/nios2-elf/5.3.0/../../../../../H-x86_64-mingw32/nios2-elf/lib/mhw-mulx\libc.a(lib_a-mprec.o)
                0x0000000000006f4c                __b2d
 .text.__d2b    0x0000000000007058      0x14c d:/dev/vhdl/program/nios2eds/bin/gnu/h-x86_64-mingw32/bin/../lib/gcc/nios2-elf/5.3.0/../../../../../H-x86_64-mingw32/nios2-elf/lib/mhw-mulx\libc.a(lib_a-mprec.o)
                0x0000000000007058                __d2b
 .text.__ratio  0x00000000000071a4       0xa4 d:/dev/vhdl/program/nios2eds/bin/gnu/h-x86_64-mingw32/bin/../lib/gcc/nios2-elf/5.3.0/../../../../../H-x86_64-mingw32/nios2-elf/lib/mhw-mulx\libc.a(lib_a-mprec.o)
                0x00000000000071a4                __ratio
 .text._mprec_log10
                0x0000000000007248       0x74 d:/dev/vhdl/program/nios2eds/bin/gnu/h-x86_64-mingw32/bin/../lib/gcc/nios2-elf/5.3.0/../../../../../H-x86_64-mingw32/nios2-elf/lib/mhw-mulx\libc.a(lib_a-mprec.o)
                0x0000000000007248                _mprec_log10
 .text.__copybits
                0x00000000000072bc       0x78 d:/dev/vhdl/program/nios2eds/bin/gnu/h-x86_64-mingw32/bin/../lib/gcc/nios2-elf/5.3.0/../../../../../H-x86_64-mingw32/nios2-elf/lib/mhw-mulx\libc.a(lib_a-mprec.o)
                0x00000000000072bc                __copybits
 .text.__any_on
                0x0000000000007334       0x8c d:/dev/vhdl/program/nios2eds/bin/gnu/h-x86_64-mingw32/bin/../lib/gcc/nios2-elf/5.3.0/../../../../../H-x86_64-mingw32/nios2-elf/lib/mhw-mulx\libc.a(lib_a-mprec.o)
                0x0000000000007334                __any_on
 .text          0x00000000000073c0        0x0 d:/dev/vhdl/program/nios2eds/bin/gnu/h-x86_64-mingw32/bin/../lib/gcc/nios2-elf/5.3.0/../../../../../H-x86_64-mingw32/nios2-elf/lib/mhw-mulx\libc.a(lib_a-s_fpclassify.o)
 .text.__fpclassifyd
                0x00000000000073c0       0x74 d:/dev/vhdl/program/nios2eds/bin/gnu/h-x86_64-mingw32/bin/../lib/gcc/nios2-elf/5.3.0/../../../../../H-x86_64-mingw32/nios2-elf/lib/mhw-mulx\libc.a(lib_a-s_fpclassify.o)
                0x00000000000073c0                __fpclassifyd
 .text          0x0000000000007434        0x0 d:/dev/vhdl/program/nios2eds/bin/gnu/h-x86_64-mingw32/bin/../lib/gcc/nios2-elf/5.3.0/../../../../../H-x86_64-mingw32/nios2-elf/lib/mhw-mulx\libc.a(lib_a-stdio.o)
 .text.__sread  0x0000000000007434       0x54 d:/dev/vhdl/program/nios2eds/bin/gnu/h-x86_64-mingw32/bin/../lib/gcc/nios2-elf/5.3.0/../../../../../H-x86_64-mingw32/nios2-elf/lib/mhw-mulx\libc.a(lib_a-stdio.o)
                0x0000000000007434                __sread
 .text.__seofread
                0x0000000000007488        0x8 d:/dev/vhdl/program/nios2eds/bin/gnu/h-x86_64-mingw32/bin/../lib/gcc/nios2-elf/5.3.0/../../../../../H-x86_64-mingw32/nios2-elf/lib/mhw-mulx\libc.a(lib_a-stdio.o)
                0x0000000000007488                __seofread
 .text.__swrite
                0x0000000000007490       0x7c d:/dev/vhdl/program/nios2eds/bin/gnu/h-x86_64-mingw32/bin/../lib/gcc/nios2-elf/5.3.0/../../../../../H-x86_64-mingw32/nios2-elf/lib/mhw-mulx\libc.a(lib_a-stdio.o)
                0x0000000000007490                __swrite
 .text.__sseek  0x000000000000750c       0x5c d:/dev/vhdl/program/nios2eds/bin/gnu/h-x86_64-mingw32/bin/../lib/gcc/nios2-elf/5.3.0/../../../../../H-x86_64-mingw32/nios2-elf/lib/mhw-mulx\libc.a(lib_a-stdio.o)
                0x000000000000750c                __sseek
 .text.__sclose
                0x0000000000007568        0x8 d:/dev/vhdl/program/nios2eds/bin/gnu/h-x86_64-mingw32/bin/../lib/gcc/nios2-elf/5.3.0/../../../../../H-x86_64-mingw32/nios2-elf/lib/mhw-mulx\libc.a(lib_a-stdio.o)
                0x0000000000007568                __sclose
 .text          0x0000000000007570        0x0 d:/dev/vhdl/program/nios2eds/bin/gnu/h-x86_64-mingw32/bin/../lib/gcc/nios2-elf/5.3.0/../../../../../H-x86_64-mingw32/nios2-elf/lib/mhw-mulx\libc.a(lib_a-strcmp.o)
 .text.strcmp   0x0000000000007570       0xdc d:/dev/vhdl/program/nios2eds/bin/gnu/h-x86_64-mingw32/bin/../lib/gcc/nios2-elf/5.3.0/../../../../../H-x86_64-mingw32/nios2-elf/lib/mhw-mulx\libc.a(lib_a-strcmp.o)
                0x0000000000007570                strcmp
 .text          0x000000000000764c        0x0 d:/dev/vhdl/program/nios2eds/bin/gnu/h-x86_64-mingw32/bin/../lib/gcc/nios2-elf/5.3.0/../../../../../H-x86_64-mingw32/nios2-elf/lib/mhw-mulx\libc.a(lib_a-strlen.o)
 .text.strlen   0x000000000000764c       0x98 d:/dev/vhdl/program/nios2eds/bin/gnu/h-x86_64-mingw32/bin/../lib/gcc/nios2-elf/5.3.0/../../../../../H-x86_64-mingw32/nios2-elf/lib/mhw-mulx\libc.a(lib_a-strlen.o)
                0x000000000000764c                strlen
 .text          0x00000000000076e4        0x0 d:/dev/vhdl/program/nios2eds/bin/gnu/h-x86_64-mingw32/bin/../lib/gcc/nios2-elf/5.3.0/../../../../../H-x86_64-mingw32/nios2-elf/lib/mhw-mulx\libc.a(lib_a-vfiprintf.o)
 .text.__sprint_r.part.0
                0x00000000000076e4       0xfc d:/dev/vhdl/program/nios2eds/bin/gnu/h-x86_64-mingw32/bin/../lib/gcc/nios2-elf/5.3.0/../../../../../H-x86_64-mingw32/nios2-elf/lib/mhw-mulx\libc.a(lib_a-vfiprintf.o)
 .text.__sprint_r
                0x00000000000077e0       0x18 d:/dev/vhdl/program/nios2eds/bin/gnu/h-x86_64-mingw32/bin/../lib/gcc/nios2-elf/5.3.0/../../../../../H-x86_64-mingw32/nios2-elf/lib/mhw-mulx\libc.a(lib_a-vfiprintf.o)
                0x00000000000077e0                __sprint_r
 .text.___vfiprintf_internal_r
                0x00000000000077f8     0x145c d:/dev/vhdl/program/nios2eds/bin/gnu/h-x86_64-mingw32/bin/../lib/gcc/nios2-elf/5.3.0/../../../../../H-x86_64-mingw32/nios2-elf/lib/mhw-mulx\libc.a(lib_a-vfiprintf.o)
                0x00000000000077f8                ___vfiprintf_internal_r
 .text.__vfiprintf_internal
                0x0000000000008c54       0x1c d:/dev/vhdl/program/nios2eds/bin/gnu/h-x86_64-mingw32/bin/../lib/gcc/nios2-elf/5.3.0/../../../../../H-x86_64-mingw32/nios2-elf/lib/mhw-mulx\libc.a(lib_a-vfiprintf.o)
                0x0000000000008c54                __vfiprintf_internal
 .text.__sbprintf
                0x0000000000008c70       0xbc d:/dev/vhdl/program/nios2eds/bin/gnu/h-x86_64-mingw32/bin/../lib/gcc/nios2-elf/5.3.0/../../../../../H-x86_64-mingw32/nios2-elf/lib/mhw-mulx\libc.a(lib_a-vfiprintf.o)
 .text          0x0000000000008d2c        0x0 d:/dev/vhdl/program/nios2eds/bin/gnu/h-x86_64-mingw32/bin/../lib/gcc/nios2-elf/5.3.0/../../../../../H-x86_64-mingw32/nios2-elf/lib/mhw-mulx\libc.a(lib_a-writer.o)
 .text._write_r
                0x0000000000008d2c       0x60 d:/dev/vhdl/program/nios2eds/bin/gnu/h-x86_64-mingw32/bin/../lib/gcc/nios2-elf/5.3.0/../../../../../H-x86_64-mingw32/nios2-elf/lib/mhw-mulx\libc.a(lib_a-writer.o)
                0x0000000000008d2c                _write_r
 .text          0x0000000000008d8c        0x0 d:/dev/vhdl/program/nios2eds/bin/gnu/h-x86_64-mingw32/bin/../lib/gcc/nios2-elf/5.3.0/../../../../../H-x86_64-mingw32/nios2-elf/lib/mhw-mulx\libc.a(closer.o)
 .text._close_r
                0x0000000000008d8c       0x54 d:/dev/vhdl/program/nios2eds/bin/gnu/h-x86_64-mingw32/bin/../lib/gcc/nios2-elf/5.3.0/../../../../../H-x86_64-mingw32/nios2-elf/lib/mhw-mulx\libc.a(closer.o)
                0x0000000000008d8c                _close_r
 .text          0x0000000000008de0        0x0 d:/dev/vhdl/program/nios2eds/bin/gnu/h-x86_64-mingw32/bin/../lib/gcc/nios2-elf/5.3.0/../../../../../H-x86_64-mingw32/nios2-elf/lib/mhw-mulx\libc.a(lib_a-callocr.o)
 .text._calloc_r
                0x0000000000008de0       0xc4 d:/dev/vhdl/program/nios2eds/bin/gnu/h-x86_64-mingw32/bin/../lib/gcc/nios2-elf/5.3.0/../../../../../H-x86_64-mingw32/nios2-elf/lib/mhw-mulx\libc.a(lib_a-callocr.o)
                0x0000000000008de0                _calloc_r
 .text          0x0000000000008ea4        0x0 d:/dev/vhdl/program/nios2eds/bin/gnu/h-x86_64-mingw32/bin/../lib/gcc/nios2-elf/5.3.0/../../../../../H-x86_64-mingw32/nios2-elf/lib/mhw-mulx\libc.a(lib_a-fclose.o)
 .text._fclose_r
                0x0000000000008ea4       0xf0 d:/dev/vhdl/program/nios2eds/bin/gnu/h-x86_64-mingw32/bin/../lib/gcc/nios2-elf/5.3.0/../../../../../H-x86_64-mingw32/nios2-elf/lib/mhw-mulx\libc.a(lib_a-fclose.o)
                0x0000000000008ea4                _fclose_r
 .text.fclose   0x0000000000008f94       0x14 d:/dev/vhdl/program/nios2eds/bin/gnu/h-x86_64-mingw32/bin/../lib/gcc/nios2-elf/5.3.0/../../../../../H-x86_64-mingw32/nios2-elf/lib/mhw-mulx\libc.a(lib_a-fclose.o)
                0x0000000000008f94                fclose
 .text          0x0000000000008fa8        0x0 d:/dev/vhdl/program/nios2eds/bin/gnu/h-x86_64-mingw32/bin/../lib/gcc/nios2-elf/5.3.0/../../../../../H-x86_64-mingw32/nios2-elf/lib/mhw-mulx\libc.a(lib_a-fputwc.o)
 .text.__fputwc
                0x0000000000008fa8      0x164 d:/dev/vhdl/program/nios2eds/bin/gnu/h-x86_64-mingw32/bin/../lib/gcc/nios2-elf/5.3.0/../../../../../H-x86_64-mingw32/nios2-elf/lib/mhw-mulx\libc.a(lib_a-fputwc.o)
                0x0000000000008fa8                __fputwc
 .text._fputwc_r
                0x000000000000910c       0x24 d:/dev/vhdl/program/nios2eds/bin/gnu/h-x86_64-mingw32/bin/../lib/gcc/nios2-elf/5.3.0/../../../../../H-x86_64-mingw32/nios2-elf/lib/mhw-mulx\libc.a(lib_a-fputwc.o)
                0x000000000000910c                _fputwc_r
 .text.fputwc   0x0000000000009130       0x80 d:/dev/vhdl/program/nios2eds/bin/gnu/h-x86_64-mingw32/bin/../lib/gcc/nios2-elf/5.3.0/../../../../../H-x86_64-mingw32/nios2-elf/lib/mhw-mulx\libc.a(lib_a-fputwc.o)
                0x0000000000009130                fputwc
 .text          0x00000000000091b0        0x0 d:/dev/vhdl/program/nios2eds/bin/gnu/h-x86_64-mingw32/bin/../lib/gcc/nios2-elf/5.3.0/../../../../../H-x86_64-mingw32/nios2-elf/lib/mhw-mulx\libc.a(lib_a-fstatr.o)
 .text._fstat_r
                0x00000000000091b0       0x5c d:/dev/vhdl/program/nios2eds/bin/gnu/h-x86_64-mingw32/bin/../lib/gcc/nios2-elf/5.3.0/../../../../../H-x86_64-mingw32/nios2-elf/lib/mhw-mulx\libc.a(lib_a-fstatr.o)
                0x00000000000091b0                _fstat_r
 .text          0x000000000000920c        0x0 d:/dev/vhdl/program/nios2eds/bin/gnu/h-x86_64-mingw32/bin/../lib/gcc/nios2-elf/5.3.0/../../../../../H-x86_64-mingw32/nios2-elf/lib/mhw-mulx\libc.a(lib_a-fvwrite.o)
 .text.__sfvwrite_r
                0x000000000000920c      0x4bc d:/dev/vhdl/program/nios2eds/bin/gnu/h-x86_64-mingw32/bin/../lib/gcc/nios2-elf/5.3.0/../../../../../H-x86_64-mingw32/nios2-elf/lib/mhw-mulx\libc.a(lib_a-fvwrite.o)
                0x000000000000920c                __sfvwrite_r
 .text          0x00000000000096c8        0x0 d:/dev/vhdl/program/nios2eds/bin/gnu/h-x86_64-mingw32/bin/../lib/gcc/nios2-elf/5.3.0/../../../../../H-x86_64-mingw32/nios2-elf/lib/mhw-mulx\libc.a(lib_a-isattyr.o)
 .text._isatty_r
                0x00000000000096c8       0x54 d:/dev/vhdl/program/nios2eds/bin/gnu/h-x86_64-mingw32/bin/../lib/gcc/nios2-elf/5.3.0/../../../../../H-x86_64-mingw32/nios2-elf/lib/mhw-mulx\libc.a(lib_a-isattyr.o)
                0x00000000000096c8                _isatty_r
 .text          0x000000000000971c        0x0 d:/dev/vhdl/program/nios2eds/bin/gnu/h-x86_64-mingw32/bin/../lib/gcc/nios2-elf/5.3.0/../../../../../H-x86_64-mingw32/nios2-elf/lib/mhw-mulx\libc.a(lib_a-lseekr.o)
 .text._lseek_r
                0x000000000000971c       0x60 d:/dev/vhdl/program/nios2eds/bin/gnu/h-x86_64-mingw32/bin/../lib/gcc/nios2-elf/5.3.0/../../../../../H-x86_64-mingw32/nios2-elf/lib/mhw-mulx\libc.a(lib_a-lseekr.o)
                0x000000000000971c                _lseek_r
 .text          0x000000000000977c        0x0 d:/dev/vhdl/program/nios2eds/bin/gnu/h-x86_64-mingw32/bin/../lib/gcc/nios2-elf/5.3.0/../../../../../H-x86_64-mingw32/nios2-elf/lib/mhw-mulx\libc.a(lib_a-memmove.o)
 .text.memmove  0x000000000000977c      0x15c d:/dev/vhdl/program/nios2eds/bin/gnu/h-x86_64-mingw32/bin/../lib/gcc/nios2-elf/5.3.0/../../../../../H-x86_64-mingw32/nios2-elf/lib/mhw-mulx\libc.a(lib_a-memmove.o)
                0x000000000000977c                memmove
 .text          0x00000000000098d8        0x0 d:/dev/vhdl/program/nios2eds/bin/gnu/h-x86_64-mingw32/bin/../lib/gcc/nios2-elf/5.3.0/../../../../../H-x86_64-mingw32/nios2-elf/lib/mhw-mulx\libc.a(lib_a-readr.o)
 .text._read_r  0x00000000000098d8       0x60 d:/dev/vhdl/program/nios2eds/bin/gnu/h-x86_64-mingw32/bin/../lib/gcc/nios2-elf/5.3.0/../../../../../H-x86_64-mingw32/nios2-elf/lib/mhw-mulx\libc.a(lib_a-readr.o)
                0x00000000000098d8                _read_r
 .text          0x0000000000009938        0x0 d:/dev/vhdl/program/nios2eds/bin/gnu/h-x86_64-mingw32/bin/../lib/gcc/nios2-elf/5.3.0/../../../../../H-x86_64-mingw32/nios2-elf/lib/mhw-mulx\libc.a(lib_a-reallocr.o)
 .text._realloc_r
                0x0000000000009938      0x564 d:/dev/vhdl/program/nios2eds/bin/gnu/h-x86_64-mingw32/bin/../lib/gcc/nios2-elf/5.3.0/../../../../../H-x86_64-mingw32/nios2-elf/lib/mhw-mulx\libc.a(lib_a-reallocr.o)
                0x0000000000009938                _realloc_r
 .text          0x0000000000009e9c        0x0 d:/dev/vhdl/program/nios2eds/bin/gnu/h-x86_64-mingw32/bin/../lib/gcc/nios2-elf/5.3.0/../../../../../H-x86_64-mingw32/nios2-elf/lib/mhw-mulx\libc.a(lib_a-wbuf.o)
 .text.__swbuf_r
                0x0000000000009e9c      0x140 d:/dev/vhdl/program/nios2eds/bin/gnu/h-x86_64-mingw32/bin/../lib/gcc/nios2-elf/5.3.0/../../../../../H-x86_64-mingw32/nios2-elf/lib/mhw-mulx\libc.a(lib_a-wbuf.o)
                0x0000000000009e9c                __swbuf_r
 .text.__swbuf  0x0000000000009fdc       0x18 d:/dev/vhdl/program/nios2eds/bin/gnu/h-x86_64-mingw32/bin/../lib/gcc/nios2-elf/5.3.0/../../../../../H-x86_64-mingw32/nios2-elf/lib/mhw-mulx\libc.a(lib_a-wbuf.o)
                0x0000000000009fdc                __swbuf
 .text          0x0000000000009ff4        0x0 d:/dev/vhdl/program/nios2eds/bin/gnu/h-x86_64-mingw32/bin/../lib/gcc/nios2-elf/5.3.0/../../../../../H-x86_64-mingw32/nios2-elf/lib/mhw-mulx\libc.a(lib_a-wcrtomb.o)
 .text._wcrtomb_r
                0x0000000000009ff4       0x9c d:/dev/vhdl/program/nios2eds/bin/gnu/h-x86_64-mingw32/bin/../lib/gcc/nios2-elf/5.3.0/../../../../../H-x86_64-mingw32/nios2-elf/lib/mhw-mulx\libc.a(lib_a-wcrtomb.o)
                0x0000000000009ff4                _wcrtomb_r
 .text.wcrtomb  0x000000000000a090       0xc0 d:/dev/vhdl/program/nios2eds/bin/gnu/h-x86_64-mingw32/bin/../lib/gcc/nios2-elf/5.3.0/../../../../../H-x86_64-mingw32/nios2-elf/lib/mhw-mulx\libc.a(lib_a-wcrtomb.o)
                0x000000000000a090                wcrtomb
 .text          0x000000000000a150        0x0 d:/dev/vhdl/program/nios2eds/bin/gnu/h-x86_64-mingw32/bin/../lib/gcc/nios2-elf/5.3.0/../../../../../H-x86_64-mingw32/nios2-elf/lib/mhw-mulx\libc.a(lib_a-wctomb_r.o)
 .text.__ascii_wctomb
                0x000000000000a150       0x30 d:/dev/vhdl/program/nios2eds/bin/gnu/h-x86_64-mingw32/bin/../lib/gcc/nios2-elf/5.3.0/../../../../../H-x86_64-mingw32/nios2-elf/lib/mhw-mulx\libc.a(lib_a-wctomb_r.o)
                0x000000000000a150                __ascii_wctomb
 .text._wctomb_r
                0x000000000000a180       0x5c d:/dev/vhdl/program/nios2eds/bin/gnu/h-x86_64-mingw32/bin/../lib/gcc/nios2-elf/5.3.0/../../../../../H-x86_64-mingw32/nios2-elf/lib/mhw-mulx\libc.a(lib_a-wctomb_r.o)
                0x000000000000a180                _wctomb_r
 .text          0x000000000000a1dc      0x578 d:/dev/vhdl/program/nios2eds/bin/gnu/h-x86_64-mingw32/bin/../lib/gcc/nios2-elf/5.3.0/mhw-mulx\libgcc.a(_udivdi3.o)
                0x000000000000a1dc                __udivdi3
 .text          0x000000000000a754      0x538 d:/dev/vhdl/program/nios2eds/bin/gnu/h-x86_64-mingw32/bin/../lib/gcc/nios2-elf/5.3.0/mhw-mulx\libgcc.a(_umoddi3.o)
                0x000000000000a754                __umoddi3
 .text          0x000000000000ac8c      0x1b4 d:/dev/vhdl/program/nios2eds/bin/gnu/h-x86_64-mingw32/bin/../lib/gcc/nios2-elf/5.3.0/mhw-mulx\libgcc.a(lib2-divmod.o)
                0x000000000000ac8c                __divsi3
                0x000000000000ad10                __modsi3
                0x000000000000ad84                __udivsi3
                0x000000000000ade8                __umodsi3
 .text          0x000000000000ae40      0x8ac d:/dev/vhdl/program/nios2eds/bin/gnu/h-x86_64-mingw32/bin/../lib/gcc/nios2-elf/5.3.0/mhw-mulx\libgcc.a(adddf3.o)
                0x000000000000ae40                __adddf3
 .text          0x000000000000b6ec      0x8e8 d:/dev/vhdl/program/nios2eds/bin/gnu/h-x86_64-mingw32/bin/../lib/gcc/nios2-elf/5.3.0/mhw-mulx\libgcc.a(divdf3.o)
                0x000000000000b6ec                __divdf3
 .text          0x000000000000bfd4       0x88 d:/dev/vhdl/program/nios2eds/bin/gnu/h-x86_64-mingw32/bin/../lib/gcc/nios2-elf/5.3.0/mhw-mulx\libgcc.a(eqdf2.o)
                0x000000000000bfd4                __nedf2
                0x000000000000bfd4                __eqdf2
 .text          0x000000000000c05c       0xdc d:/dev/vhdl/program/nios2eds/bin/gnu/h-x86_64-mingw32/bin/../lib/gcc/nios2-elf/5.3.0/mhw-mulx\libgcc.a(gedf2.o)
                0x000000000000c05c                __gedf2
                0x000000000000c05c                __gtdf2
 .text          0x000000000000c138       0xf4 d:/dev/vhdl/program/nios2eds/bin/gnu/h-x86_64-mingw32/bin/../lib/gcc/nios2-elf/5.3.0/mhw-mulx\libgcc.a(ledf2.o)
                0x000000000000c138                __ledf2
                0x000000000000c138                __ltdf2
 .text          0x000000000000c22c      0x718 d:/dev/vhdl/program/nios2eds/bin/gnu/h-x86_64-mingw32/bin/../lib/gcc/nios2-elf/5.3.0/mhw-mulx\libgcc.a(muldf3.o)
                0x000000000000c22c                __muldf3
 .text          0x000000000000c944      0x8fc d:/dev/vhdl/program/nios2eds/bin/gnu/h-x86_64-mingw32/bin/../lib/gcc/nios2-elf/5.3.0/mhw-mulx\libgcc.a(subdf3.o)
                0x000000000000c944                __subdf3
 .text          0x000000000000d240       0x80 d:/dev/vhdl/program/nios2eds/bin/gnu/h-x86_64-mingw32/bin/../lib/gcc/nios2-elf/5.3.0/mhw-mulx\libgcc.a(fixdfsi.o)
                0x000000000000d240                __fixdfsi
 .text          0x000000000000d2c0       0xdc d:/dev/vhdl/program/nios2eds/bin/gnu/h-x86_64-mingw32/bin/../lib/gcc/nios2-elf/5.3.0/mhw-mulx\libgcc.a(floatsidf.o)
                0x000000000000d2c0                __floatsidf
 .text          0x000000000000d39c       0xa8 d:/dev/vhdl/program/nios2eds/bin/gnu/h-x86_64-mingw32/bin/../lib/gcc/nios2-elf/5.3.0/mhw-mulx\libgcc.a(floatunsidf.o)
                0x000000000000d39c                __floatunsidf
 .text          0x000000000000d444        0x0 d:/dev/vhdl/program/nios2eds/bin/gnu/h-x86_64-mingw32/bin/../lib/gcc/nios2-elf/5.3.0/mhw-mulx\libgcc.a(_clz.o)
 .text          0x000000000000d444       0x64 d:/dev/vhdl/program/nios2eds/bin/gnu/h-x86_64-mingw32/bin/../lib/gcc/nios2-elf/5.3.0/mhw-mulx\libgcc.a(_clzsi2.o)
                0x000000000000d444                __clzsi2
 .text          0x000000000000d4a8      0x10c D:/Dev/vhdl/dev/testNIOS/audioVisualisator_bsp/\libucosii_bsp.a(alt_close.o)
                0x000000000000d4e4                close
 .text          0x000000000000d5b4       0x2c D:/Dev/vhdl/dev/testNIOS/audioVisualisator_bsp/\libucosii_bsp.a(alt_dev.o)
 .text          0x000000000000d5e0        0x0 D:/Dev/vhdl/dev/testNIOS/audioVisualisator_bsp/\libucosii_bsp.a(alt_errno.o)
 .text          0x000000000000d5e0       0xec D:/Dev/vhdl/dev/testNIOS/audioVisualisator_bsp/\libucosii_bsp.a(alt_fstat.o)
                0x000000000000d61c                fstat
 .text          0x000000000000d6cc       0xe0 D:/Dev/vhdl/dev/testNIOS/audioVisualisator_bsp/\libucosii_bsp.a(alt_isatty.o)
                0x000000000000d708                isatty
 .text          0x000000000000d7ac       0xec D:/Dev/vhdl/dev/testNIOS/audioVisualisator_bsp/\libucosii_bsp.a(alt_load.o)
                0x000000000000d814                alt_load
 .text          0x000000000000d898      0x110 D:/Dev/vhdl/dev/testNIOS/audioVisualisator_bsp/\libucosii_bsp.a(alt_lseek.o)
                0x000000000000d8d4                lseek
 .text          0x000000000000d9a8       0xbc D:/Dev/vhdl/dev/testNIOS/audioVisualisator_bsp/\libucosii_bsp.a(alt_main.o)
                0x000000000000d9a8                alt_main
 .text          0x000000000000da64      0x138 D:/Dev/vhdl/dev/testNIOS/audioVisualisator_bsp/\libucosii_bsp.a(alt_read.o)
                0x000000000000daa0                read
 .text          0x000000000000db9c       0x64 D:/Dev/vhdl/dev/testNIOS/audioVisualisator_bsp/\libucosii_bsp.a(alt_release_fd.o)
                0x000000000000db9c                alt_release_fd
 .text          0x000000000000dc00       0xb0 D:/Dev/vhdl/dev/testNIOS/audioVisualisator_bsp/\libucosii_bsp.a(alt_sbrk.o)
                0x000000000000dc00                sbrk
 .text          0x000000000000dcb0      0x134 D:/Dev/vhdl/dev/testNIOS/audioVisualisator_bsp/\libucosii_bsp.a(alt_write.o)
                0x000000000000dcec                write
 .text          0x000000000000dde4      0x124 D:/Dev/vhdl/dev/testNIOS/audioVisualisator_bsp/\libucosii_bsp.a(alt_env_lock.o)
                0x000000000000dde4                __env_lock
                0x000000000000dea8                __env_unlock
 .text          0x000000000000df08      0x1ec D:/Dev/vhdl/dev/testNIOS/audioVisualisator_bsp/\libucosii_bsp.a(alt_malloc_lock.o)
                0x000000000000df08                __malloc_lock
                0x000000000000e028                __malloc_unlock
 .text          0x000000000000e0f4     0x2024 D:/Dev/vhdl/dev/testNIOS/audioVisualisator_bsp/\libucosii_bsp.a(os_core.o)
                0x000000000000e0f4                OSEventNameGet
                0x000000000000e214                OSEventNameSet
                0x000000000000e354                OSEventPendMulti
                0x000000000000e964                OSInit
                0x000000000000e9bc                OSIntEnter
                0x000000000000ea08                OSIntExit
                0x000000000000eb00                OSSchedLock
                0x000000000000eb8c                OSSchedUnlock
                0x000000000000ec68                OSStart
                0x000000000000ecd8                OSStatInit
                0x000000000000ed88                OSTimeTick
                0x000000000000efa8                OSVersion
                0x000000000000efc8                OS_Dummy
                0x000000000000efe8                OS_EventTaskRdy
                0x000000000000f180                OS_EventTaskWait
                0x000000000000f290                OS_EventTaskWaitMulti
                0x000000000000f3e0                OS_EventTaskRemove
                0x000000000000f498                OS_EventTaskRemoveMulti
                0x000000000000f598                OS_EventWaitListInit
                0x000000000000f978                OS_MemClr
                0x000000000000f9cc                OS_MemCopy
                0x000000000000fa34                OS_Sched
                0x000000000000fb78                OS_StrCopy
                0x000000000000fbec                OS_StrLen
                0x000000000000fc40                OS_TaskIdle
                0x000000000000fc9c                OS_TaskStat
                0x000000000000fd78                OS_TaskStatStkChk
                0x000000000000fe44                OS_TCBInit
 .text          0x0000000000010118      0x190 D:/Dev/vhdl/dev/testNIOS/audioVisualisator_bsp/\libucosii_bsp.a(os_dbg.o)
                0x0000000000010118                OSDebugInit
 .text          0x00000000000102a8     0x1714 D:/Dev/vhdl/dev/testNIOS/audioVisualisator_bsp/\libucosii_bsp.a(os_flag.o)
                0x00000000000102a8                OSFlagAccept
                0x00000000000105b0                OSFlagCreate
                0x00000000000106b8                OSFlagDel
                0x0000000000010900                OSFlagNameGet
                0x0000000000010a28                OSFlagNameSet
                0x0000000000010b74                OSFlagPend
                0x000000000001112c                OSFlagPendGetFlagsRdy
                0x000000000001118c                OSFlagPost
                0x0000000000011520                OSFlagQuery
                0x0000000000011744                OS_FlagInit
                0x0000000000011918                OS_FlagUnlink
 .text          0x00000000000119bc      0x754 D:/Dev/vhdl/dev/testNIOS/audioVisualisator_bsp/\libucosii_bsp.a(os_mem.o)
                0x00000000000119bc                OSMemCreate
                0x0000000000011b90                OSMemGet
                0x0000000000011c80                OSMemNameGet
                0x0000000000011d70                OSMemNameSet
                0x0000000000011e84                OSMemPut
                0x0000000000011f5c                OSMemQuery
                0x0000000000012044                OS_MemInit
 .text          0x0000000000012110     0x1104 D:/Dev/vhdl/dev/testNIOS/audioVisualisator_bsp/\libucosii_bsp.a(os_q.o)
                0x0000000000012110                OSQAccept
                0x0000000000012250                OSQCreate
                0x00000000000123fc                OSQDel
                0x000000000001267c                OSQFlush
                0x0000000000012734                OSQPend
                0x00000000000129c0                OSQPendAbort
                0x0000000000012b2c                OSQPost
                0x0000000000012c94                OSQPostFront
                0x0000000000012e04                OSQPostOpt
                0x0000000000013010                OSQQuery
                0x000000000001316c                OS_QInit
 .text          0x0000000000013214      0xa60 D:/Dev/vhdl/dev/testNIOS/audioVisualisator_bsp/\libucosii_bsp.a(os_sem.o)
                0x0000000000013214                OSSemAccept
                0x00000000000132c4                OSSemCreate
                0x000000000001339c                OSSemDel
                0x00000000000135dc                OSSemPend
                0x00000000000137e8                OSSemPendAbort
                0x0000000000013954                OSSemPost
                0x0000000000013a64                OSSemQuery
                0x0000000000013b74                OSSemSet
 .text          0x0000000000013c74     0x176c D:/Dev/vhdl/dev/testNIOS/audioVisualisator_bsp/\libucosii_bsp.a(os_task.o)
                0x0000000000013c74                OSTaskChangePrio
                0x0000000000014164                OSTaskCreate
                0x0000000000014310                OSTaskCreateExt
                0x00000000000144f4                OSTaskDel
                0x0000000000014838                OSTaskDelReq
                0x0000000000014988                OSTaskNameGet
                0x0000000000014b20                OSTaskNameSet
                0x0000000000014cd4                OSTaskResume
                0x0000000000014ea8                OSTaskStkChk
                0x0000000000015068                OSTaskSuspend
                0x000000000001524c                OSTaskQuery
                0x0000000000015370                OS_TaskStkClr
 .text          0x00000000000153e0      0x4f4 D:/Dev/vhdl/dev/testNIOS/audioVisualisator_bsp/\libucosii_bsp.a(os_time.o)
                0x00000000000153e0                OSTimeDly
                0x00000000000154e4                OSTimeDlyHMSM
                0x0000000000015644                OSTimeDlyResume
                0x0000000000015818                OSTimeGet
                0x0000000000015874                OSTimeSet
 .text          0x00000000000158d4      0x880 D:/Dev/vhdl/dev/testNIOS/audioVisualisator_bsp/\libucosii_bsp.a(alt_sys_init.o)
                0x0000000000015908                alt_irq_init
                0x0000000000015940                alt_sys_init
 .text          0x0000000000016154      0x164 D:/Dev/vhdl/dev/testNIOS/audioVisualisator_bsp/\libucosii_bsp.a(altera_avalon_jtag_uart_fd.o)
                0x0000000000016154                altera_avalon_jtag_uart_read_fd
                0x00000000000161b4                altera_avalon_jtag_uart_write_fd
                0x0000000000016214                altera_avalon_jtag_uart_close_fd
                0x0000000000016264                altera_avalon_jtag_uart_ioctl_fd
 .text          0x00000000000162b8      0x550 D:/Dev/vhdl/dev/testNIOS/audioVisualisator_bsp/\libucosii_bsp.a(altera_avalon_jtag_uart_init.o)
                0x00000000000162b8                altera_avalon_jtag_uart_init
                0x00000000000167a0                altera_avalon_jtag_uart_close
 .text          0x0000000000016808       0xf0 D:/Dev/vhdl/dev/testNIOS/audioVisualisator_bsp/\libucosii_bsp.a(altera_avalon_jtag_uart_ioctl.o)
                0x0000000000016808                altera_avalon_jtag_uart_ioctl
 .text          0x00000000000168f8      0x2bc D:/Dev/vhdl/dev/testNIOS/audioVisualisator_bsp/\libucosii_bsp.a(altera_avalon_jtag_uart_read.o)
                0x00000000000168f8                altera_avalon_jtag_uart_read
 .text          0x0000000000016bb4      0x2c4 D:/Dev/vhdl/dev/testNIOS/audioVisualisator_bsp/\libucosii_bsp.a(altera_avalon_jtag_uart_write.o)
                0x0000000000016bb4                altera_avalon_jtag_uart_write
 .text          0x0000000000016e78       0xf0 D:/Dev/vhdl/dev/testNIOS/audioVisualisator_bsp/\libucosii_bsp.a(altera_avalon_timer_sc.o)
                0x0000000000016ef4                alt_avalon_timer_sc_init
 .text          0x0000000000016f68      0x7a8 D:/Dev/vhdl/dev/testNIOS/audioVisualisator_bsp/\libucosii_bsp.a(altera_up_avalon_audio.o)
                0x0000000000016f68                alt_up_audio_open_dev
                0x0000000000016fa4                alt_up_audio_enable_read_interrupt
                0x0000000000016ff8                alt_up_audio_disable_read_interrupt
                0x0000000000017050                alt_up_audio_enable_write_interrupt
                0x00000000000170a4                alt_up_audio_disable_write_interrupt
                0x00000000000170fc                alt_up_audio_read_interrupt_pending
                0x000000000001713c                alt_up_audio_write_interrupt_pending
                0x000000000001717c                alt_up_audio_reset_audio_core
                0x0000000000017210                alt_up_audio_read_fifo_avail
                0x0000000000017270                alt_up_audio_record_r
                0x00000000000172d8                alt_up_audio_record_l
                0x0000000000017340                alt_up_audio_write_fifo_space
                0x00000000000173a0                alt_up_audio_play_r
                0x0000000000017408                alt_up_audio_play_l
                0x0000000000017470                alt_up_audio_read_fifo
                0x0000000000017550                alt_up_audio_write_fifo
                0x0000000000017658                alt_up_audio_read_fifo_head
                0x00000000000176a8                alt_up_audio_write_fifo_head
 .text          0x0000000000017710      0x4f4 D:/Dev/vhdl/dev/testNIOS/audioVisualisator_bsp/\libucosii_bsp.a(altera_up_avalon_character_lcd.o)
                0x0000000000017710                get_DDRAM_addr
                0x0000000000017784                alt_up_character_lcd_send_cmd
                0x00000000000177c4                alt_up_character_lcd_init
                0x00000000000177fc                alt_up_character_lcd_open_dev
                0x0000000000017838                alt_up_character_lcd_write
                0x00000000000178b4                alt_up_character_lcd_string
                0x000000000001792c                alt_up_character_lcd_write_fd
                0x000000000001797c                alt_up_character_lcd_set_cursor_pos
                0x00000000000179f0                alt_up_character_lcd_shift_cursor
                0x0000000000017a7c                alt_up_character_lcd_shift_display
                0x0000000000017b08                alt_up_character_lcd_erase_pos
                0x0000000000017b94                alt_up_character_lcd_cursor_off
                0x0000000000017bcc                alt_up_character_lcd_cursor_blink_on
 .text          0x0000000000017c04      0x38c D:/Dev/vhdl/dev/testNIOS/audioVisualisator_bsp/\libucosii_bsp.a(altera_up_avalon_irda.o)
                0x0000000000017c04                alt_up_irda_enable_read_interrupt
                0x0000000000017c60                alt_up_irda_disable_read_interrupt
                0x0000000000017cc0                alt_up_irda_get_used_space_in_read_FIFO
                0x0000000000017d00                alt_up_irda_get_available_space_in_write_FIFO
                0x0000000000017d3c                alt_up_irda_check_parity
                0x0000000000017d80                alt_up_irda_write_data
                0x0000000000017dc0                alt_up_irda_read_data
                0x0000000000017e34                alt_up_irda_read_fd
                0x0000000000017ec4                alt_up_irda_write_fd
                0x0000000000017f54                alt_up_irda_open_dev
 .text          0x0000000000017f90      0x6b0 D:/Dev/vhdl/dev/testNIOS/audioVisualisator_bsp/\libucosii_bsp.a(altera_up_avalon_ps2.o)
                0x0000000000017f90                read_RI_bit
                0x0000000000017fc4                read_RE_bit
                0x0000000000017ff4                read_CE_bit
                0x0000000000018028                read_num_bytes_available
                0x0000000000018058                read_data_valid
                0x000000000001808c                read_data_byte
                0x00000000000180b8                alt_up_ps2_init
                0x0000000000018180                alt_up_ps2_enable_read_interrupt
                0x00000000000181dc                alt_up_ps2_disable_read_interrupt
                0x000000000001823c                alt_up_ps2_write_data_byte
                0x00000000000182b0                alt_up_ps2_wait_for_ack
                0x0000000000018318                alt_up_ps2_write_data_byte_with_ack
                0x000000000001837c                alt_up_ps2_read_data_byte_timeout
                0x0000000000018418                alt_up_ps2_read_data_byte
                0x0000000000018488                alt_up_ps2_clear_fifo
                0x00000000000184e0                alt_up_ps2_read_fd
                0x000000000001856c                alt_up_ps2_write_fd
                0x0000000000018604                alt_up_ps2_open_dev
 .text          0x0000000000018640      0x390 D:/Dev/vhdl/dev/testNIOS/audioVisualisator_bsp/\libucosii_bsp.a(altera_up_avalon_rs232.o)
                0x0000000000018640                alt_up_rs232_enable_read_interrupt
                0x000000000001869c                alt_up_rs232_disable_read_interrupt
                0x00000000000186fc                alt_up_rs232_get_used_space_in_read_FIFO
                0x000000000001873c                alt_up_rs232_get_available_space_in_write_FIFO
                0x0000000000018778                alt_up_rs232_check_parity
                0x00000000000187bc                alt_up_rs232_write_data
                0x00000000000187fc                alt_up_rs232_read_data
                0x0000000000018870                alt_up_rs232_read_fd
                0x0000000000018900                alt_up_rs232_write_fd
                0x0000000000018994                alt_up_rs232_open_dev
 .text          0x00000000000189d0      0x12c D:/Dev/vhdl/dev/testNIOS/audioVisualisator_bsp/\libucosii_bsp.a(alt_alarm_start.o)
                0x00000000000189d0                alt_alarm_start
 .text          0x0000000000018afc       0x20 D:/Dev/vhdl/dev/testNIOS/audioVisualisator_bsp/\libucosii_bsp.a(alt_dcache_flush_all.o)
                0x0000000000018afc                alt_dcache_flush_all
 .text          0x0000000000018b1c       0xe0 D:/Dev/vhdl/dev/testNIOS/audioVisualisator_bsp/\libucosii_bsp.a(alt_dev_llist_insert.o)
                0x0000000000018b58                alt_dev_llist_insert
 .text          0x0000000000018bfc       0x60 D:/Dev/vhdl/dev/testNIOS/audioVisualisator_bsp/\libucosii_bsp.a(alt_do_ctors.o)
                0x0000000000018bfc                _do_ctors
 .text          0x0000000000018c5c       0x60 D:/Dev/vhdl/dev/testNIOS/audioVisualisator_bsp/\libucosii_bsp.a(alt_do_dtors.o)
                0x0000000000018c5c                _do_dtors
 .text          0x0000000000018cbc       0x90 D:/Dev/vhdl/dev/testNIOS/audioVisualisator_bsp/\libucosii_bsp.a(alt_find_dev.o)
                0x0000000000018cbc                alt_find_dev
 .text          0x0000000000018d4c       0x34 D:/Dev/vhdl/dev/testNIOS/audioVisualisator_bsp/\libucosii_bsp.a(alt_icache_flush_all.o)
                0x0000000000018d4c                alt_icache_flush_all
 .text          0x0000000000018d80      0x140 D:/Dev/vhdl/dev/testNIOS/audioVisualisator_bsp/\libucosii_bsp.a(alt_io_redirect.o)
                0x0000000000018e44                alt_io_redirect
 .text          0x0000000000018ec0      0x180 D:/Dev/vhdl/dev/testNIOS/audioVisualisator_bsp/\libucosii_bsp.a(alt_irq_register.o)
                0x0000000000018ec0                alt_irq_register
 .text          0x0000000000019040        0x0 D:/Dev/vhdl/dev/testNIOS/audioVisualisator_bsp/\libucosii_bsp.a(alt_irq_vars.o)
 .text          0x0000000000019040      0x254 D:/Dev/vhdl/dev/testNIOS/audioVisualisator_bsp/\libucosii_bsp.a(alt_open.o)
                0x0000000000019140                open
 .text          0x0000000000019294      0x1a4 D:/Dev/vhdl/dev/testNIOS/audioVisualisator_bsp/\libucosii_bsp.a(alt_tick.o)
                0x0000000000019294                alt_alarm_stop
                0x0000000000019330                alt_tick
 .text          0x0000000000019438       0x24 D:/Dev/vhdl/dev/testNIOS/audioVisualisator_bsp/\libucosii_bsp.a(altera_nios2_gen2_irq.o)
                0x0000000000019438                altera_nios2_gen2_irq_init
 .text          0x000000000001945c       0xd0 D:/Dev/vhdl/dev/testNIOS/audioVisualisator_bsp/\libucosii_bsp.a(os_cpu_a.o)
                0x000000000001945c                OSCtxSw
                0x000000000001945c                OSIntCtxSw
                0x00000000000194e8                OSStartHighRdy
                0x0000000000019508                OSStartTsk
 .text          0x000000000001952c      0x288 D:/Dev/vhdl/dev/testNIOS/audioVisualisator_bsp/\libucosii_bsp.a(os_cpu_c.o)
                0x000000000001952c                OSTaskStkInit
                0x0000000000019688                OSTaskCreateHook
                0x00000000000196ac                OSTaskDelHook
                0x00000000000196d0                OSTaskSwHook
                0x00000000000196f0                OSTaskStatHook
                0x0000000000019710                OSTimeTickHook
                0x0000000000019730                OSInitHookBegin
                0x0000000000019750                OSInitHookEnd
                0x0000000000019770                OSTaskIdleHook
                0x0000000000019790                OSTCBInitHook
 .text          0x00000000000197b4      0x108 D:/Dev/vhdl/dev/testNIOS/audioVisualisator_bsp/\libucosii_bsp.a(alt_find_file.o)
                0x00000000000197b4                alt_find_file
 .text          0x00000000000198bc       0xdc D:/Dev/vhdl/dev/testNIOS/audioVisualisator_bsp/\libucosii_bsp.a(alt_get_fd.o)
                0x00000000000198bc                alt_get_fd
 .text          0x0000000000019998       0x90 D:/Dev/vhdl/dev/testNIOS/audioVisualisator_bsp/\libucosii_bsp.a(alt_icache_flush.o)
                0x0000000000019998                alt_icache_flush
 .text          0x0000000000019a28        0x0 D:/Dev/vhdl/dev/testNIOS/audioVisualisator_bsp/\libucosii_bsp.a(alt_irq_entry.o)
 .text          0x0000000000019a28        0x0 D:/Dev/vhdl/dev/testNIOS/audioVisualisator_bsp/\libucosii_bsp.a(alt_irq_handler.o)
 .text          0x0000000000019a28        0x0 D:/Dev/vhdl/dev/testNIOS/audioVisualisator_bsp/\libucosii_bsp.a(alt_exception_entry.o)
 .text          0x0000000000019a28       0x9c D:/Dev/vhdl/dev/testNIOS/audioVisualisator_bsp/\libucosii_bsp.a(alt_instruction_exception_entry.o)
                0x0000000000019a28                alt_exception_cause_generated_bad_addr
 .text          0x0000000000019ac4        0x0 d:/dev/vhdl/program/nios2eds/bin/gnu/h-x86_64-mingw32/bin/../lib/gcc/nios2-elf/5.3.0/../../../../../H-x86_64-mingw32/nios2-elf/lib/mhw-mulx\libc.a(lib_a-atexit.o)
 .text.atexit   0x0000000000019ac4       0x14 d:/dev/vhdl/program/nios2eds/bin/gnu/h-x86_64-mingw32/bin/../lib/gcc/nios2-elf/5.3.0/../../../../../H-x86_64-mingw32/nios2-elf/lib/mhw-mulx\libc.a(lib_a-atexit.o)
                0x0000000000019ac4                atexit
 .text          0x0000000000019ad8        0x0 d:/dev/vhdl/program/nios2eds/bin/gnu/h-x86_64-mingw32/bin/../lib/gcc/nios2-elf/5.3.0/../../../../../H-x86_64-mingw32/nios2-elf/lib/mhw-mulx\libc.a(lib_a-exit.o)
 .text.exit     0x0000000000019ad8       0x38 d:/dev/vhdl/program/nios2eds/bin/gnu/h-x86_64-mingw32/bin/../lib/gcc/nios2-elf/5.3.0/../../../../../H-x86_64-mingw32/nios2-elf/lib/mhw-mulx\libc.a(lib_a-exit.o)
                0x0000000000019ad8                exit
 .text          0x0000000000019b10        0x0 d:/dev/vhdl/program/nios2eds/bin/gnu/h-x86_64-mingw32/bin/../lib/gcc/nios2-elf/5.3.0/../../../../../H-x86_64-mingw32/nios2-elf/lib/mhw-mulx\libc.a(lib_a-memcmp.o)
 .text.memcmp   0x0000000000019b10       0x7c d:/dev/vhdl/program/nios2eds/bin/gnu/h-x86_64-mingw32/bin/../lib/gcc/nios2-elf/5.3.0/../../../../../H-x86_64-mingw32/nios2-elf/lib/mhw-mulx\libc.a(lib_a-memcmp.o)
                0x0000000000019b10                memcmp
 .text          0x0000000000019b8c        0x0 d:/dev/vhdl/program/nios2eds/bin/gnu/h-x86_64-mingw32/bin/../lib/gcc/nios2-elf/5.3.0/../../../../../H-x86_64-mingw32/nios2-elf/lib/mhw-mulx\libc.a(lib_a-__atexit.o)
 .text.__register_exitproc
                0x0000000000019b8c      0x118 d:/dev/vhdl/program/nios2eds/bin/gnu/h-x86_64-mingw32/bin/../lib/gcc/nios2-elf/5.3.0/../../../../../H-x86_64-mingw32/nios2-elf/lib/mhw-mulx\libc.a(lib_a-__atexit.o)
                0x0000000000019b8c                __register_exitproc
 .text          0x0000000000019ca4        0x0 d:/dev/vhdl/program/nios2eds/bin/gnu/h-x86_64-mingw32/bin/../lib/gcc/nios2-elf/5.3.0/../../../../../H-x86_64-mingw32/nios2-elf/lib/mhw-mulx\libc.a(lib_a-__call_atexit.o)
 .text.__call_exitprocs
                0x0000000000019ca4      0x180 d:/dev/vhdl/program/nios2eds/bin/gnu/h-x86_64-mingw32/bin/../lib/gcc/nios2-elf/5.3.0/../../../../../H-x86_64-mingw32/nios2-elf/lib/mhw-mulx\libc.a(lib_a-__call_atexit.o)
                0x0000000000019ca4                __call_exitprocs
 .text          0x0000000000019e24       0x34 D:/Dev/vhdl/dev/testNIOS/audioVisualisator_bsp/\libucosii_bsp.a(alt_exit.o)
                0x0000000000019e24                _exit
 *(.gnu.warning.*)
 *(.fini)
                [!provide]                        PROVIDE (__etext, ABSOLUTE (.))
                [!provide]                        PROVIDE (_etext, ABSOLUTE (.))
                [!provide]                        PROVIDE (etext, ABSOLUTE (.))
 *(.eh_frame_hdr)
                0x0000000000019e58                . = ALIGN (0x4)
                [!provide]                        PROVIDE (__preinit_array_start, ABSOLUTE (.))
 *(.preinit_array)
                [!provide]                        PROVIDE (__preinit_array_end, ABSOLUTE (.))
                [!provide]                        PROVIDE (__init_array_start, ABSOLUTE (.))
 *(.init_array)
                [!provide]                        PROVIDE (__init_array_end, ABSOLUTE (.))
                [!provide]                        PROVIDE (__fini_array_start, ABSOLUTE (.))
 *(.fini_array)
                [!provide]                        PROVIDE (__fini_array_end, ABSOLUTE (.))
 *(.eh_frame)
 *(.gcc_except_table .gcc_except_table.*)
 *(.dynamic)
                0x0000000000019e58                PROVIDE (__CTOR_LIST__, ABSOLUTE (.))
 *(.ctors)
 *(SORT(.ctors.*))
                0x0000000000019e58                PROVIDE (__CTOR_END__, ABSOLUTE (.))
                0x0000000000019e58                PROVIDE (__DTOR_LIST__, ABSOLUTE (.))
 *(.dtors)
 *(SORT(.dtors.*))
                0x0000000000019e58                PROVIDE (__DTOR_END__, ABSOLUTE (.))
 *(.jcr)
                0x0000000000019e58                . = ALIGN (0x4)

.rodata         0x0000000000019e58      0x60c
                0x0000000000019e58                PROVIDE (__ram_rodata_start, ABSOLUTE (.))
                0x0000000000019e58                . = ALIGN (0x4)
 *(.rodata .rodata.* .gnu.linkonce.r.*)
 .rodata        0x0000000000019e58       0x54 obj/default/hello_ucosii.o
 .rodata.str1.4
                0x0000000000019eac       0x42 d:/dev/vhdl/program/nios2eds/bin/gnu/h-x86_64-mingw32/bin/../lib/gcc/nios2-elf/5.3.0/../../../../../H-x86_64-mingw32/nios2-elf/lib/mhw-mulx\libc.a(lib_a-vfprintf.o)
 .rodata.zeroes.4404
                0x0000000000019eee       0x10 d:/dev/vhdl/program/nios2eds/bin/gnu/h-x86_64-mingw32/bin/../lib/gcc/nios2-elf/5.3.0/../../../../../H-x86_64-mingw32/nios2-elf/lib/mhw-mulx\libc.a(lib_a-vfprintf.o)
 .rodata.blanks.4403
                0x0000000000019efe       0x10 d:/dev/vhdl/program/nios2eds/bin/gnu/h-x86_64-mingw32/bin/../lib/gcc/nios2-elf/5.3.0/../../../../../H-x86_64-mingw32/nios2-elf/lib/mhw-mulx\libc.a(lib_a-vfprintf.o)
 *fill*         0x0000000000019f0e        0x2 
 .rodata.str1.4
                0x0000000000019f10       0x10 d:/dev/vhdl/program/nios2eds/bin/gnu/h-x86_64-mingw32/bin/../lib/gcc/nios2-elf/5.3.0/../../../../../H-x86_64-mingw32/nios2-elf/lib/mhw-mulx\libc.a(lib_a-dtoa.o)
                                         0x12 (size before relaxing)
 .rodata.str1.4
                0x0000000000019f20        0x2 d:/dev/vhdl/program/nios2eds/bin/gnu/h-x86_64-mingw32/bin/../lib/gcc/nios2-elf/5.3.0/../../../../../H-x86_64-mingw32/nios2-elf/lib/mhw-mulx\libc.a(lib_a-impure.o)
 *fill*         0x0000000000019f22        0x2 
 .rodata.str1.4
                0x0000000000019f24        0xc d:/dev/vhdl/program/nios2eds/bin/gnu/h-x86_64-mingw32/bin/../lib/gcc/nios2-elf/5.3.0/../../../../../H-x86_64-mingw32/nios2-elf/lib/mhw-mulx\libc.a(lib_a-locale.o)
                                         0x12 (size before relaxing)
 .rodata.p05.2768
                0x0000000000019f30        0xc d:/dev/vhdl/program/nios2eds/bin/gnu/h-x86_64-mingw32/bin/../lib/gcc/nios2-elf/5.3.0/../../../../../H-x86_64-mingw32/nios2-elf/lib/mhw-mulx\libc.a(lib_a-mprec.o)
 .rodata.__mprec_tinytens
                0x0000000000019f3c       0x28 d:/dev/vhdl/program/nios2eds/bin/gnu/h-x86_64-mingw32/bin/../lib/gcc/nios2-elf/5.3.0/../../../../../H-x86_64-mingw32/nios2-elf/lib/mhw-mulx\libc.a(lib_a-mprec.o)
                0x0000000000019f3c                __mprec_tinytens
 .rodata.__mprec_bigtens
                0x0000000000019f64       0x28 d:/dev/vhdl/program/nios2eds/bin/gnu/h-x86_64-mingw32/bin/../lib/gcc/nios2-elf/5.3.0/../../../../../H-x86_64-mingw32/nios2-elf/lib/mhw-mulx\libc.a(lib_a-mprec.o)
                0x0000000000019f64                __mprec_bigtens
 .rodata.__mprec_tens
                0x0000000000019f8c       0xc8 d:/dev/vhdl/program/nios2eds/bin/gnu/h-x86_64-mingw32/bin/../lib/gcc/nios2-elf/5.3.0/../../../../../H-x86_64-mingw32/nios2-elf/lib/mhw-mulx\libc.a(lib_a-mprec.o)
                0x0000000000019f8c                __mprec_tens
 .rodata.str1.4
                0x000000000001a054       0x2f d:/dev/vhdl/program/nios2eds/bin/gnu/h-x86_64-mingw32/bin/../lib/gcc/nios2-elf/5.3.0/../../../../../H-x86_64-mingw32/nios2-elf/lib/mhw-mulx\libc.a(lib_a-vfiprintf.o)
 .rodata.zeroes.4349
                0x000000000001a054       0x10 d:/dev/vhdl/program/nios2eds/bin/gnu/h-x86_64-mingw32/bin/../lib/gcc/nios2-elf/5.3.0/../../../../../H-x86_64-mingw32/nios2-elf/lib/mhw-mulx\libc.a(lib_a-vfiprintf.o)
 .rodata.blanks.4348
                0x000000000001a064       0x10 d:/dev/vhdl/program/nios2eds/bin/gnu/h-x86_64-mingw32/bin/../lib/gcc/nios2-elf/5.3.0/../../../../../H-x86_64-mingw32/nios2-elf/lib/mhw-mulx\libc.a(lib_a-vfiprintf.o)
 .rodata        0x000000000001a074      0x100 d:/dev/vhdl/program/nios2eds/bin/gnu/h-x86_64-mingw32/bin/../lib/gcc/nios2-elf/5.3.0/mhw-mulx\libgcc.a(_clz.o)
                0x000000000001a074                __clz_tab
 .rodata        0x000000000001a174        0xa D:/Dev/vhdl/dev/testNIOS/audioVisualisator_bsp/\libucosii_bsp.a(alt_dev.o)
 *fill*         0x000000000001a17e        0x2 
 .rodata        0x000000000001a180        0xf D:/Dev/vhdl/dev/testNIOS/audioVisualisator_bsp/\libucosii_bsp.a(alt_main.o)
 *fill*         0x000000000001a18f        0x1 
 .rodata        0x000000000001a190      0x11e D:/Dev/vhdl/dev/testNIOS/audioVisualisator_bsp/\libucosii_bsp.a(os_core.o)
                0x000000000001a190                OSUnMapTbl
 *fill*         0x000000000001a2ae        0x2 
 .rodata        0x000000000001a2b0      0x1ad D:/Dev/vhdl/dev/testNIOS/audioVisualisator_bsp/\libucosii_bsp.a(alt_sys_init.o)
 *fill*         0x000000000001a45d        0x3 
 .rodata        0x000000000001a460        0x2 D:/Dev/vhdl/dev/testNIOS/audioVisualisator_bsp/\libucosii_bsp.a(os_cpu_c.o)
 *(.rodata1)
                0x000000000001a464                . = ALIGN (0x4)
 *fill*         0x000000000001a462        0x2 
                0x000000000001a464                PROVIDE (__ram_rodata_end, ABSOLUTE (.))
                0x0000000000019e58                PROVIDE (__flash_rodata_start, LOADADDR (.rodata))

.rwdata         0x000000000001a464     0x1f68 load address 0x000000000001c3cc
                0x000000000001a464                PROVIDE (__ram_rwdata_start, ABSOLUTE (.))
                0x000000000001a464                . = ALIGN (0x4)
 *(.got.plt)
 *(.got)
 *(.data1)
 *(.data .data.* .gnu.linkonce.d.*)
 .data          0x000000000001a464        0x0 D:/Dev/vhdl/dev/testNIOS/audioVisualisator_bsp//obj/HAL/src/crt0.o
 .data          0x000000000001a464        0x0 obj/default/hello_ucosii.o
 .data          0x000000000001a464        0x0 obj/default/src/Audio.o
 .data          0x000000000001a464        0x0 obj/default/src/Display.o
 .data          0x000000000001a464        0x0 d:/dev/vhdl/program/nios2eds/bin/gnu/h-x86_64-mingw32/bin/../lib/gcc/nios2-elf/5.3.0/../../../../../H-x86_64-mingw32/nios2-elf/lib/mhw-mulx\libc.a(lib_a-malloc.o)
 .data          0x000000000001a464        0x0 d:/dev/vhdl/program/nios2eds/bin/gnu/h-x86_64-mingw32/bin/../lib/gcc/nios2-elf/5.3.0/../../../../../H-x86_64-mingw32/nios2-elf/lib/mhw-mulx\libc.a(lib_a-mallocr.o)
 .data.__malloc_av_
                0x000000000001a464      0x408 d:/dev/vhdl/program/nios2eds/bin/gnu/h-x86_64-mingw32/bin/../lib/gcc/nios2-elf/5.3.0/../../../../../H-x86_64-mingw32/nios2-elf/lib/mhw-mulx\libc.a(lib_a-mallocr.o)
                0x000000000001a464                __malloc_av_
 .data          0x000000000001a86c        0x0 d:/dev/vhdl/program/nios2eds/bin/gnu/h-x86_64-mingw32/bin/../lib/gcc/nios2-elf/5.3.0/../../../../../H-x86_64-mingw32/nios2-elf/lib/mhw-mulx\libc.a(lib_a-printf.o)
 .data          0x000000000001a86c        0x0 d:/dev/vhdl/program/nios2eds/bin/gnu/h-x86_64-mingw32/bin/../lib/gcc/nios2-elf/5.3.0/../../../../../H-x86_64-mingw32/nios2-elf/lib/mhw-mulx\libc.a(lib_a-rand.o)
 .data          0x000000000001a86c        0x0 d:/dev/vhdl/program/nios2eds/bin/gnu/h-x86_64-mingw32/bin/../lib/gcc/nios2-elf/5.3.0/../../../../../H-x86_64-mingw32/nios2-elf/lib/mhw-mulx\libc.a(lib_a-sbrkr.o)
 .data          0x000000000001a86c        0x0 d:/dev/vhdl/program/nios2eds/bin/gnu/h-x86_64-mingw32/bin/../lib/gcc/nios2-elf/5.3.0/../../../../../H-x86_64-mingw32/nios2-elf/lib/mhw-mulx\libc.a(lib_a-vfprintf.o)
 .data          0x000000000001a86c        0x0 d:/dev/vhdl/program/nios2eds/bin/gnu/h-x86_64-mingw32/bin/../lib/gcc/nios2-elf/5.3.0/../../../../../H-x86_64-mingw32/nios2-elf/lib/mhw-mulx\libc.a(lib_a-wsetup.o)
 .data          0x000000000001a86c        0x0 d:/dev/vhdl/program/nios2eds/bin/gnu/h-x86_64-mingw32/bin/../lib/gcc/nios2-elf/5.3.0/../../../../../H-x86_64-mingw32/nios2-elf/lib/mhw-mulx\libc.a(lib_a-dtoa.o)
 .data          0x000000000001a86c        0x0 d:/dev/vhdl/program/nios2eds/bin/gnu/h-x86_64-mingw32/bin/../lib/gcc/nios2-elf/5.3.0/../../../../../H-x86_64-mingw32/nios2-elf/lib/mhw-mulx\libc.a(lib_a-fflush.o)
 .data          0x000000000001a86c        0x0 d:/dev/vhdl/program/nios2eds/bin/gnu/h-x86_64-mingw32/bin/../lib/gcc/nios2-elf/5.3.0/../../../../../H-x86_64-mingw32/nios2-elf/lib/mhw-mulx\libc.a(lib_a-findfp.o)
 .data          0x000000000001a86c        0x0 d:/dev/vhdl/program/nios2eds/bin/gnu/h-x86_64-mingw32/bin/../lib/gcc/nios2-elf/5.3.0/../../../../../H-x86_64-mingw32/nios2-elf/lib/mhw-mulx\libc.a(lib_a-freer.o)
 .data          0x000000000001a86c        0x0 d:/dev/vhdl/program/nios2eds/bin/gnu/h-x86_64-mingw32/bin/../lib/gcc/nios2-elf/5.3.0/../../../../../H-x86_64-mingw32/nios2-elf/lib/mhw-mulx\libc.a(lib_a-fwalk.o)
 .data          0x000000000001a86c        0x0 d:/dev/vhdl/program/nios2eds/bin/gnu/h-x86_64-mingw32/bin/../lib/gcc/nios2-elf/5.3.0/../../../../../H-x86_64-mingw32/nios2-elf/lib/mhw-mulx\libc.a(lib_a-impure.o)
 .data.impure_data
                0x000000000001a86c      0x424 d:/dev/vhdl/program/nios2eds/bin/gnu/h-x86_64-mingw32/bin/../lib/gcc/nios2-elf/5.3.0/../../../../../H-x86_64-mingw32/nios2-elf/lib/mhw-mulx\libc.a(lib_a-impure.o)
 .data          0x000000000001ac90        0x0 d:/dev/vhdl/program/nios2eds/bin/gnu/h-x86_64-mingw32/bin/../lib/gcc/nios2-elf/5.3.0/../../../../../H-x86_64-mingw32/nios2-elf/lib/mhw-mulx\libc.a(lib_a-int_errno.o)
 .data          0x000000000001ac90        0x0 d:/dev/vhdl/program/nios2eds/bin/gnu/h-x86_64-mingw32/bin/../lib/gcc/nios2-elf/5.3.0/../../../../../H-x86_64-mingw32/nios2-elf/lib/mhw-mulx\libc.a(lib_a-locale.o)
 .data.lc_message_charset
                0x000000000001ac90       0x20 d:/dev/vhdl/program/nios2eds/bin/gnu/h-x86_64-mingw32/bin/../lib/gcc/nios2-elf/5.3.0/../../../../../H-x86_64-mingw32/nios2-elf/lib/mhw-mulx\libc.a(lib_a-locale.o)
 .data.lc_ctype_charset
                0x000000000001acb0       0x20 d:/dev/vhdl/program/nios2eds/bin/gnu/h-x86_64-mingw32/bin/../lib/gcc/nios2-elf/5.3.0/../../../../../H-x86_64-mingw32/nios2-elf/lib/mhw-mulx\libc.a(lib_a-locale.o)
 .data.lconv    0x000000000001acd0       0x38 d:/dev/vhdl/program/nios2eds/bin/gnu/h-x86_64-mingw32/bin/../lib/gcc/nios2-elf/5.3.0/../../../../../H-x86_64-mingw32/nios2-elf/lib/mhw-mulx\libc.a(lib_a-locale.o)
 .data          0x000000000001ad08        0x0 d:/dev/vhdl/program/nios2eds/bin/gnu/h-x86_64-mingw32/bin/../lib/gcc/nios2-elf/5.3.0/../../../../../H-x86_64-mingw32/nios2-elf/lib/mhw-mulx\libc.a(lib_a-makebuf.o)
 .data          0x000000000001ad08        0x0 d:/dev/vhdl/program/nios2eds/bin/gnu/h-x86_64-mingw32/bin/../lib/gcc/nios2-elf/5.3.0/../../../../../H-x86_64-mingw32/nios2-elf/lib/mhw-mulx\libc.a(lib_a-memchr.o)
 .data          0x000000000001ad08        0x0 d:/dev/vhdl/program/nios2eds/bin/gnu/h-x86_64-mingw32/bin/../lib/gcc/nios2-elf/5.3.0/../../../../../H-x86_64-mingw32/nios2-elf/lib/mhw-mulx\libc.a(lib_a-memcpy.o)
 .data          0x000000000001ad08        0x0 d:/dev/vhdl/program/nios2eds/bin/gnu/h-x86_64-mingw32/bin/../lib/gcc/nios2-elf/5.3.0/../../../../../H-x86_64-mingw32/nios2-elf/lib/mhw-mulx\libc.a(lib_a-memset.o)
 .data          0x000000000001ad08        0x0 d:/dev/vhdl/program/nios2eds/bin/gnu/h-x86_64-mingw32/bin/../lib/gcc/nios2-elf/5.3.0/../../../../../H-x86_64-mingw32/nios2-elf/lib/mhw-mulx\libc.a(lib_a-mprec.o)
 .data          0x000000000001ad08        0x0 d:/dev/vhdl/program/nios2eds/bin/gnu/h-x86_64-mingw32/bin/../lib/gcc/nios2-elf/5.3.0/../../../../../H-x86_64-mingw32/nios2-elf/lib/mhw-mulx\libc.a(lib_a-s_fpclassify.o)
 .data          0x000000000001ad08        0x0 d:/dev/vhdl/program/nios2eds/bin/gnu/h-x86_64-mingw32/bin/../lib/gcc/nios2-elf/5.3.0/../../../../../H-x86_64-mingw32/nios2-elf/lib/mhw-mulx\libc.a(lib_a-stdio.o)
 .data          0x000000000001ad08        0x0 d:/dev/vhdl/program/nios2eds/bin/gnu/h-x86_64-mingw32/bin/../lib/gcc/nios2-elf/5.3.0/../../../../../H-x86_64-mingw32/nios2-elf/lib/mhw-mulx\libc.a(lib_a-strcmp.o)
 .data          0x000000000001ad08        0x0 d:/dev/vhdl/program/nios2eds/bin/gnu/h-x86_64-mingw32/bin/../lib/gcc/nios2-elf/5.3.0/../../../../../H-x86_64-mingw32/nios2-elf/lib/mhw-mulx\libc.a(lib_a-strlen.o)
 .data          0x000000000001ad08        0x0 d:/dev/vhdl/program/nios2eds/bin/gnu/h-x86_64-mingw32/bin/../lib/gcc/nios2-elf/5.3.0/../../../../../H-x86_64-mingw32/nios2-elf/lib/mhw-mulx\libc.a(lib_a-vfiprintf.o)
 .data          0x000000000001ad08        0x0 d:/dev/vhdl/program/nios2eds/bin/gnu/h-x86_64-mingw32/bin/../lib/gcc/nios2-elf/5.3.0/../../../../../H-x86_64-mingw32/nios2-elf/lib/mhw-mulx\libc.a(lib_a-writer.o)
 .data          0x000000000001ad08        0x0 d:/dev/vhdl/program/nios2eds/bin/gnu/h-x86_64-mingw32/bin/../lib/gcc/nios2-elf/5.3.0/../../../../../H-x86_64-mingw32/nios2-elf/lib/mhw-mulx\libc.a(closer.o)
 .data          0x000000000001ad08        0x0 d:/dev/vhdl/program/nios2eds/bin/gnu/h-x86_64-mingw32/bin/../lib/gcc/nios2-elf/5.3.0/../../../../../H-x86_64-mingw32/nios2-elf/lib/mhw-mulx\libc.a(lib_a-callocr.o)
 .data          0x000000000001ad08        0x0 d:/dev/vhdl/program/nios2eds/bin/gnu/h-x86_64-mingw32/bin/../lib/gcc/nios2-elf/5.3.0/../../../../../H-x86_64-mingw32/nios2-elf/lib/mhw-mulx\libc.a(lib_a-fclose.o)
 .data          0x000000000001ad08        0x0 d:/dev/vhdl/program/nios2eds/bin/gnu/h-x86_64-mingw32/bin/../lib/gcc/nios2-elf/5.3.0/../../../../../H-x86_64-mingw32/nios2-elf/lib/mhw-mulx\libc.a(lib_a-fputwc.o)
 .data          0x000000000001ad08        0x0 d:/dev/vhdl/program/nios2eds/bin/gnu/h-x86_64-mingw32/bin/../lib/gcc/nios2-elf/5.3.0/../../../../../H-x86_64-mingw32/nios2-elf/lib/mhw-mulx\libc.a(lib_a-fstatr.o)
 .data          0x000000000001ad08        0x0 d:/dev/vhdl/program/nios2eds/bin/gnu/h-x86_64-mingw32/bin/../lib/gcc/nios2-elf/5.3.0/../../../../../H-x86_64-mingw32/nios2-elf/lib/mhw-mulx\libc.a(lib_a-fvwrite.o)
 .data          0x000000000001ad08        0x0 d:/dev/vhdl/program/nios2eds/bin/gnu/h-x86_64-mingw32/bin/../lib/gcc/nios2-elf/5.3.0/../../../../../H-x86_64-mingw32/nios2-elf/lib/mhw-mulx\libc.a(lib_a-isattyr.o)
 .data          0x000000000001ad08        0x0 d:/dev/vhdl/program/nios2eds/bin/gnu/h-x86_64-mingw32/bin/../lib/gcc/nios2-elf/5.3.0/../../../../../H-x86_64-mingw32/nios2-elf/lib/mhw-mulx\libc.a(lib_a-lseekr.o)
 .data          0x000000000001ad08        0x0 d:/dev/vhdl/program/nios2eds/bin/gnu/h-x86_64-mingw32/bin/../lib/gcc/nios2-elf/5.3.0/../../../../../H-x86_64-mingw32/nios2-elf/lib/mhw-mulx\libc.a(lib_a-memmove.o)
 .data          0x000000000001ad08        0x0 d:/dev/vhdl/program/nios2eds/bin/gnu/h-x86_64-mingw32/bin/../lib/gcc/nios2-elf/5.3.0/../../../../../H-x86_64-mingw32/nios2-elf/lib/mhw-mulx\libc.a(lib_a-readr.o)
 .data          0x000000000001ad08        0x0 d:/dev/vhdl/program/nios2eds/bin/gnu/h-x86_64-mingw32/bin/../lib/gcc/nios2-elf/5.3.0/../../../../../H-x86_64-mingw32/nios2-elf/lib/mhw-mulx\libc.a(lib_a-reallocr.o)
 .data          0x000000000001ad08        0x0 d:/dev/vhdl/program/nios2eds/bin/gnu/h-x86_64-mingw32/bin/../lib/gcc/nios2-elf/5.3.0/../../../../../H-x86_64-mingw32/nios2-elf/lib/mhw-mulx\libc.a(lib_a-wbuf.o)
 .data          0x000000000001ad08        0x0 d:/dev/vhdl/program/nios2eds/bin/gnu/h-x86_64-mingw32/bin/../lib/gcc/nios2-elf/5.3.0/../../../../../H-x86_64-mingw32/nios2-elf/lib/mhw-mulx\libc.a(lib_a-wcrtomb.o)
 .data          0x000000000001ad08        0x0 d:/dev/vhdl/program/nios2eds/bin/gnu/h-x86_64-mingw32/bin/../lib/gcc/nios2-elf/5.3.0/../../../../../H-x86_64-mingw32/nios2-elf/lib/mhw-mulx\libc.a(lib_a-wctomb_r.o)
 .data          0x000000000001ad08        0x0 d:/dev/vhdl/program/nios2eds/bin/gnu/h-x86_64-mingw32/bin/../lib/gcc/nios2-elf/5.3.0/mhw-mulx\libgcc.a(_udivdi3.o)
 .data          0x000000000001ad08        0x0 d:/dev/vhdl/program/nios2eds/bin/gnu/h-x86_64-mingw32/bin/../lib/gcc/nios2-elf/5.3.0/mhw-mulx\libgcc.a(_umoddi3.o)
 .data          0x000000000001ad08        0x0 d:/dev/vhdl/program/nios2eds/bin/gnu/h-x86_64-mingw32/bin/../lib/gcc/nios2-elf/5.3.0/mhw-mulx\libgcc.a(lib2-divmod.o)
 .data          0x000000000001ad08        0x0 d:/dev/vhdl/program/nios2eds/bin/gnu/h-x86_64-mingw32/bin/../lib/gcc/nios2-elf/5.3.0/mhw-mulx\libgcc.a(adddf3.o)
 .data          0x000000000001ad08        0x0 d:/dev/vhdl/program/nios2eds/bin/gnu/h-x86_64-mingw32/bin/../lib/gcc/nios2-elf/5.3.0/mhw-mulx\libgcc.a(divdf3.o)
 .data          0x000000000001ad08        0x0 d:/dev/vhdl/program/nios2eds/bin/gnu/h-x86_64-mingw32/bin/../lib/gcc/nios2-elf/5.3.0/mhw-mulx\libgcc.a(eqdf2.o)
 .data          0x000000000001ad08        0x0 d:/dev/vhdl/program/nios2eds/bin/gnu/h-x86_64-mingw32/bin/../lib/gcc/nios2-elf/5.3.0/mhw-mulx\libgcc.a(gedf2.o)
 .data          0x000000000001ad08        0x0 d:/dev/vhdl/program/nios2eds/bin/gnu/h-x86_64-mingw32/bin/../lib/gcc/nios2-elf/5.3.0/mhw-mulx\libgcc.a(ledf2.o)
 .data          0x000000000001ad08        0x0 d:/dev/vhdl/program/nios2eds/bin/gnu/h-x86_64-mingw32/bin/../lib/gcc/nios2-elf/5.3.0/mhw-mulx\libgcc.a(muldf3.o)
 .data          0x000000000001ad08        0x0 d:/dev/vhdl/program/nios2eds/bin/gnu/h-x86_64-mingw32/bin/../lib/gcc/nios2-elf/5.3.0/mhw-mulx\libgcc.a(subdf3.o)
 .data          0x000000000001ad08        0x0 d:/dev/vhdl/program/nios2eds/bin/gnu/h-x86_64-mingw32/bin/../lib/gcc/nios2-elf/5.3.0/mhw-mulx\libgcc.a(fixdfsi.o)
 .data          0x000000000001ad08        0x0 d:/dev/vhdl/program/nios2eds/bin/gnu/h-x86_64-mingw32/bin/../lib/gcc/nios2-elf/5.3.0/mhw-mulx\libgcc.a(floatsidf.o)
 .data          0x000000000001ad08        0x0 d:/dev/vhdl/program/nios2eds/bin/gnu/h-x86_64-mingw32/bin/../lib/gcc/nios2-elf/5.3.0/mhw-mulx\libgcc.a(floatunsidf.o)
 .data          0x000000000001ad08        0x0 d:/dev/vhdl/program/nios2eds/bin/gnu/h-x86_64-mingw32/bin/../lib/gcc/nios2-elf/5.3.0/mhw-mulx\libgcc.a(_clz.o)
 .data          0x000000000001ad08        0x0 d:/dev/vhdl/program/nios2eds/bin/gnu/h-x86_64-mingw32/bin/../lib/gcc/nios2-elf/5.3.0/mhw-mulx\libgcc.a(_clzsi2.o)
 .data          0x000000000001ad08        0x0 D:/Dev/vhdl/dev/testNIOS/audioVisualisator_bsp/\libucosii_bsp.a(alt_close.o)
 .data          0x000000000001ad08      0x1a8 D:/Dev/vhdl/dev/testNIOS/audioVisualisator_bsp/\libucosii_bsp.a(alt_dev.o)
                0x000000000001ad08                alt_dev_null
                0x000000000001ad30                alt_fd_list
 .data          0x000000000001aeb0        0x0 D:/Dev/vhdl/dev/testNIOS/audioVisualisator_bsp/\libucosii_bsp.a(alt_errno.o)
 .data          0x000000000001aeb0        0x0 D:/Dev/vhdl/dev/testNIOS/audioVisualisator_bsp/\libucosii_bsp.a(alt_fstat.o)
 .data          0x000000000001aeb0        0x0 D:/Dev/vhdl/dev/testNIOS/audioVisualisator_bsp/\libucosii_bsp.a(alt_isatty.o)
 .data          0x000000000001aeb0        0x0 D:/Dev/vhdl/dev/testNIOS/audioVisualisator_bsp/\libucosii_bsp.a(alt_load.o)
 .data          0x000000000001aeb0        0x0 D:/Dev/vhdl/dev/testNIOS/audioVisualisator_bsp/\libucosii_bsp.a(alt_lseek.o)
 .data          0x000000000001aeb0        0x0 D:/Dev/vhdl/dev/testNIOS/audioVisualisator_bsp/\libucosii_bsp.a(alt_main.o)
 .data          0x000000000001aeb0        0x0 D:/Dev/vhdl/dev/testNIOS/audioVisualisator_bsp/\libucosii_bsp.a(alt_read.o)
 .data          0x000000000001aeb0        0x0 D:/Dev/vhdl/dev/testNIOS/audioVisualisator_bsp/\libucosii_bsp.a(alt_release_fd.o)
 .data          0x000000000001aeb0        0x0 D:/Dev/vhdl/dev/testNIOS/audioVisualisator_bsp/\libucosii_bsp.a(alt_sbrk.o)
 .data          0x000000000001aeb0        0x0 D:/Dev/vhdl/dev/testNIOS/audioVisualisator_bsp/\libucosii_bsp.a(alt_write.o)
 .data          0x000000000001aeb0        0x0 D:/Dev/vhdl/dev/testNIOS/audioVisualisator_bsp/\libucosii_bsp.a(alt_env_lock.o)
 .data          0x000000000001aeb0        0x0 D:/Dev/vhdl/dev/testNIOS/audioVisualisator_bsp/\libucosii_bsp.a(alt_malloc_lock.o)
 .data          0x000000000001aeb0        0x0 D:/Dev/vhdl/dev/testNIOS/audioVisualisator_bsp/\libucosii_bsp.a(os_core.o)
 .data          0x000000000001aeb0        0x0 D:/Dev/vhdl/dev/testNIOS/audioVisualisator_bsp/\libucosii_bsp.a(os_dbg.o)
 .data          0x000000000001aeb0        0x0 D:/Dev/vhdl/dev/testNIOS/audioVisualisator_bsp/\libucosii_bsp.a(os_flag.o)
 .data          0x000000000001aeb0        0x0 D:/Dev/vhdl/dev/testNIOS/audioVisualisator_bsp/\libucosii_bsp.a(os_mem.o)
 .data          0x000000000001aeb0        0x0 D:/Dev/vhdl/dev/testNIOS/audioVisualisator_bsp/\libucosii_bsp.a(os_q.o)
 .data          0x000000000001aeb0        0x0 D:/Dev/vhdl/dev/testNIOS/audioVisualisator_bsp/\libucosii_bsp.a(os_sem.o)
 .data          0x000000000001aeb0        0x0 D:/Dev/vhdl/dev/testNIOS/audioVisualisator_bsp/\libucosii_bsp.a(os_task.o)
 .data          0x000000000001aeb0        0x0 D:/Dev/vhdl/dev/testNIOS/audioVisualisator_bsp/\libucosii_bsp.a(os_time.o)
 .data          0x000000000001aeb0     0x1460 D:/Dev/vhdl/dev/testNIOS/audioVisualisator_bsp/\libucosii_bsp.a(alt_sys_init.o)
 .data          0x000000000001c310        0x0 D:/Dev/vhdl/dev/testNIOS/audioVisualisator_bsp/\libucosii_bsp.a(altera_avalon_jtag_uart_fd.o)
 .data          0x000000000001c310        0x0 D:/Dev/vhdl/dev/testNIOS/audioVisualisator_bsp/\libucosii_bsp.a(altera_avalon_jtag_uart_init.o)
 .data          0x000000000001c310        0x0 D:/Dev/vhdl/dev/testNIOS/audioVisualisator_bsp/\libucosii_bsp.a(altera_avalon_jtag_uart_ioctl.o)
 .data          0x000000000001c310        0x0 D:/Dev/vhdl/dev/testNIOS/audioVisualisator_bsp/\libucosii_bsp.a(altera_avalon_jtag_uart_read.o)
 .data          0x000000000001c310        0x0 D:/Dev/vhdl/dev/testNIOS/audioVisualisator_bsp/\libucosii_bsp.a(altera_avalon_jtag_uart_write.o)
 .data          0x000000000001c310        0x0 D:/Dev/vhdl/dev/testNIOS/audioVisualisator_bsp/\libucosii_bsp.a(altera_avalon_timer_sc.o)
 .data          0x000000000001c310        0x0 D:/Dev/vhdl/dev/testNIOS/audioVisualisator_bsp/\libucosii_bsp.a(altera_up_avalon_audio.o)
 .data          0x000000000001c310        0x0 D:/Dev/vhdl/dev/testNIOS/audioVisualisator_bsp/\libucosii_bsp.a(altera_up_avalon_character_lcd.o)
 .data          0x000000000001c310        0x0 D:/Dev/vhdl/dev/testNIOS/audioVisualisator_bsp/\libucosii_bsp.a(altera_up_avalon_irda.o)
 .data          0x000000000001c310        0x0 D:/Dev/vhdl/dev/testNIOS/audioVisualisator_bsp/\libucosii_bsp.a(altera_up_avalon_ps2.o)
 .data          0x000000000001c310        0x0 D:/Dev/vhdl/dev/testNIOS/audioVisualisator_bsp/\libucosii_bsp.a(altera_up_avalon_rs232.o)
 .data          0x000000000001c310        0x0 D:/Dev/vhdl/dev/testNIOS/audioVisualisator_bsp/\libucosii_bsp.a(alt_alarm_start.o)
 .data          0x000000000001c310        0x0 D:/Dev/vhdl/dev/testNIOS/audioVisualisator_bsp/\libucosii_bsp.a(alt_dcache_flush_all.o)
 .data          0x000000000001c310        0x0 D:/Dev/vhdl/dev/testNIOS/audioVisualisator_bsp/\libucosii_bsp.a(alt_dev_llist_insert.o)
 .data          0x000000000001c310        0x0 D:/Dev/vhdl/dev/testNIOS/audioVisualisator_bsp/\libucosii_bsp.a(alt_do_ctors.o)
 .data          0x000000000001c310        0x0 D:/Dev/vhdl/dev/testNIOS/audioVisualisator_bsp/\libucosii_bsp.a(alt_do_dtors.o)
 .data          0x000000000001c310        0x0 D:/Dev/vhdl/dev/testNIOS/audioVisualisator_bsp/\libucosii_bsp.a(alt_find_dev.o)
 .data          0x000000000001c310        0x0 D:/Dev/vhdl/dev/testNIOS/audioVisualisator_bsp/\libucosii_bsp.a(alt_icache_flush_all.o)
 .data          0x000000000001c310        0x0 D:/Dev/vhdl/dev/testNIOS/audioVisualisator_bsp/\libucosii_bsp.a(alt_io_redirect.o)
 .data          0x000000000001c310        0x0 D:/Dev/vhdl/dev/testNIOS/audioVisualisator_bsp/\libucosii_bsp.a(alt_irq_register.o)
 .data          0x000000000001c310        0x0 D:/Dev/vhdl/dev/testNIOS/audioVisualisator_bsp/\libucosii_bsp.a(alt_irq_vars.o)
 .data          0x000000000001c310        0x0 D:/Dev/vhdl/dev/testNIOS/audioVisualisator_bsp/\libucosii_bsp.a(alt_open.o)
 .data          0x000000000001c310        0x0 D:/Dev/vhdl/dev/testNIOS/audioVisualisator_bsp/\libucosii_bsp.a(alt_tick.o)
 .data          0x000000000001c310        0x0 D:/Dev/vhdl/dev/testNIOS/audioVisualisator_bsp/\libucosii_bsp.a(altera_nios2_gen2_irq.o)
 .data          0x000000000001c310        0x0 D:/Dev/vhdl/dev/testNIOS/audioVisualisator_bsp/\libucosii_bsp.a(os_cpu_a.o)
 .data          0x000000000001c310        0x0 D:/Dev/vhdl/dev/testNIOS/audioVisualisator_bsp/\libucosii_bsp.a(os_cpu_c.o)
 .data          0x000000000001c310        0x0 D:/Dev/vhdl/dev/testNIOS/audioVisualisator_bsp/\libucosii_bsp.a(alt_find_file.o)
 .data          0x000000000001c310        0x0 D:/Dev/vhdl/dev/testNIOS/audioVisualisator_bsp/\libucosii_bsp.a(alt_get_fd.o)
 .data          0x000000000001c310        0x0 D:/Dev/vhdl/dev/testNIOS/audioVisualisator_bsp/\libucosii_bsp.a(alt_icache_flush.o)
 .data          0x000000000001c310        0x0 D:/Dev/vhdl/dev/testNIOS/audioVisualisator_bsp/\libucosii_bsp.a(alt_irq_entry.o)
 .data          0x000000000001c310        0x0 D:/Dev/vhdl/dev/testNIOS/audioVisualisator_bsp/\libucosii_bsp.a(alt_irq_handler.o)
 .data          0x000000000001c310        0x0 D:/Dev/vhdl/dev/testNIOS/audioVisualisator_bsp/\libucosii_bsp.a(alt_exception_entry.o)
 .data          0x000000000001c310        0x0 D:/Dev/vhdl/dev/testNIOS/audioVisualisator_bsp/\libucosii_bsp.a(alt_instruction_exception_entry.o)
 .data          0x000000000001c310        0x0 d:/dev/vhdl/program/nios2eds/bin/gnu/h-x86_64-mingw32/bin/../lib/gcc/nios2-elf/5.3.0/../../../../../H-x86_64-mingw32/nios2-elf/lib/mhw-mulx\libc.a(lib_a-atexit.o)
 .data          0x000000000001c310        0x0 d:/dev/vhdl/program/nios2eds/bin/gnu/h-x86_64-mingw32/bin/../lib/gcc/nios2-elf/5.3.0/../../../../../H-x86_64-mingw32/nios2-elf/lib/mhw-mulx\libc.a(lib_a-exit.o)
 .data          0x000000000001c310        0x0 d:/dev/vhdl/program/nios2eds/bin/gnu/h-x86_64-mingw32/bin/../lib/gcc/nios2-elf/5.3.0/../../../../../H-x86_64-mingw32/nios2-elf/lib/mhw-mulx\libc.a(lib_a-memcmp.o)
 .data          0x000000000001c310        0x0 d:/dev/vhdl/program/nios2eds/bin/gnu/h-x86_64-mingw32/bin/../lib/gcc/nios2-elf/5.3.0/../../../../../H-x86_64-mingw32/nios2-elf/lib/mhw-mulx\libc.a(lib_a-__atexit.o)
 .data          0x000000000001c310        0x0 d:/dev/vhdl/program/nios2eds/bin/gnu/h-x86_64-mingw32/bin/../lib/gcc/nios2-elf/5.3.0/../../../../../H-x86_64-mingw32/nios2-elf/lib/mhw-mulx\libc.a(lib_a-__call_atexit.o)
 .data          0x000000000001c310        0x0 D:/Dev/vhdl/dev/testNIOS/audioVisualisator_bsp/\libucosii_bsp.a(alt_exit.o)
                0x0000000000024310                _gp = ABSOLUTE ((. + 0x8000))
                [!provide]                        PROVIDE (gp, _gp)
 *(.rwdata .rwdata.*)
 *(.sdata .sdata.* .gnu.linkonce.s.*)
 .sdata.__malloc_sbrk_base
                0x000000000001c310        0x4 d:/dev/vhdl/program/nios2eds/bin/gnu/h-x86_64-mingw32/bin/../lib/gcc/nios2-elf/5.3.0/../../../../../H-x86_64-mingw32/nios2-elf/lib/mhw-mulx\libc.a(lib_a-mallocr.o)
                0x000000000001c310                __malloc_sbrk_base
 .sdata.__malloc_trim_threshold
                0x000000000001c314        0x4 d:/dev/vhdl/program/nios2eds/bin/gnu/h-x86_64-mingw32/bin/../lib/gcc/nios2-elf/5.3.0/../../../../../H-x86_64-mingw32/nios2-elf/lib/mhw-mulx\libc.a(lib_a-mallocr.o)
                0x000000000001c314                __malloc_trim_threshold
 .sdata._global_impure_ptr
                0x000000000001c318        0x4 d:/dev/vhdl/program/nios2eds/bin/gnu/h-x86_64-mingw32/bin/../lib/gcc/nios2-elf/5.3.0/../../../../../H-x86_64-mingw32/nios2-elf/lib/mhw-mulx\libc.a(lib_a-impure.o)
                0x000000000001c318                _global_impure_ptr
 .sdata._impure_ptr
                0x000000000001c31c        0x4 d:/dev/vhdl/program/nios2eds/bin/gnu/h-x86_64-mingw32/bin/../lib/gcc/nios2-elf/5.3.0/../../../../../H-x86_64-mingw32/nios2-elf/lib/mhw-mulx\libc.a(lib_a-impure.o)
                0x000000000001c31c                _impure_ptr
 .sdata.__mb_cur_max
                0x000000000001c320        0x4 d:/dev/vhdl/program/nios2eds/bin/gnu/h-x86_64-mingw32/bin/../lib/gcc/nios2-elf/5.3.0/../../../../../H-x86_64-mingw32/nios2-elf/lib/mhw-mulx\libc.a(lib_a-locale.o)
                0x000000000001c320                __mb_cur_max
 .sdata.__wctomb
                0x000000000001c324        0x4 d:/dev/vhdl/program/nios2eds/bin/gnu/h-x86_64-mingw32/bin/../lib/gcc/nios2-elf/5.3.0/../../../../../H-x86_64-mingw32/nios2-elf/lib/mhw-mulx\libc.a(lib_a-wctomb_r.o)
                0x000000000001c324                __wctomb
 .sdata         0x000000000001c328       0x14 D:/Dev/vhdl/dev/testNIOS/audioVisualisator_bsp/\libucosii_bsp.a(alt_dev.o)
                0x000000000001c328                alt_fs_list
                0x000000000001c330                alt_dev_list
                0x000000000001c338                alt_max_fd
 .sdata         0x000000000001c33c        0x4 D:/Dev/vhdl/dev/testNIOS/audioVisualisator_bsp/\libucosii_bsp.a(alt_errno.o)
                0x000000000001c33c                alt_errno
 .sdata         0x000000000001c340        0x4 D:/Dev/vhdl/dev/testNIOS/audioVisualisator_bsp/\libucosii_bsp.a(alt_sbrk.o)
 .sdata         0x000000000001c344        0x4 D:/Dev/vhdl/dev/testNIOS/audioVisualisator_bsp/\libucosii_bsp.a(alt_env_lock.o)
 .sdata         0x000000000001c348        0x4 D:/Dev/vhdl/dev/testNIOS/audioVisualisator_bsp/\libucosii_bsp.a(alt_malloc_lock.o)
 .sdata         0x000000000001c34c       0x72 D:/Dev/vhdl/dev/testNIOS/audioVisualisator_bsp/\libucosii_bsp.a(os_dbg.o)
                0x000000000001c34c                OSDebugEn
                0x000000000001c350                OSEndiannessTest
                0x000000000001c354                OSEventEn
                0x000000000001c356                OSEventMax
                0x000000000001c358                OSEventNameSize
                0x000000000001c35a                OSEventSize
                0x000000000001c35c                OSEventTblSize
                0x000000000001c35e                OSEventMultiEn
                0x000000000001c360                OSFlagEn
                0x000000000001c362                OSFlagGrpSize
                0x000000000001c364                OSFlagNodeSize
                0x000000000001c366                OSFlagWidth
                0x000000000001c368                OSFlagMax
                0x000000000001c36a                OSFlagNameSize
                0x000000000001c36c                OSLowestPrio
                0x000000000001c36e                OSMboxEn
                0x000000000001c370                OSMemEn
                0x000000000001c372                OSMemMax
                0x000000000001c374                OSMemNameSize
                0x000000000001c376                OSMemSize
                0x000000000001c378                OSMemTblSize
                0x000000000001c37a                OSMutexEn
                0x000000000001c37c                OSPtrSize
                0x000000000001c37e                OSQEn
                0x000000000001c380                OSQMax
                0x000000000001c382                OSQSize
                0x000000000001c384                OSRdyTblSize
                0x000000000001c386                OSSemEn
                0x000000000001c388                OSStkWidth
                0x000000000001c38a                OSTaskCreateEn
                0x000000000001c38c                OSTaskCreateExtEn
                0x000000000001c38e                OSTaskDelEn
                0x000000000001c390                OSTaskIdleStkSize
                0x000000000001c392                OSTaskProfileEn
                0x000000000001c394                OSTaskMax
                0x000000000001c396                OSTaskNameSize
                0x000000000001c398                OSTaskStatEn
                0x000000000001c39a                OSTaskStatStkSize
                0x000000000001c39c                OSTaskStatStkChkEn
                0x000000000001c39e                OSTaskSwHookEn
                0x000000000001c3a0                OSTCBPrioTblMax
                0x000000000001c3a2                OSTCBSize
                0x000000000001c3a4                OSTicksPerSec
                0x000000000001c3a6                OSTimeTickHookEn
                0x000000000001c3a8                OSVersionNbr
                0x000000000001c3aa                OSTmrEn
                0x000000000001c3ac                OSTmrCfgMax
                0x000000000001c3ae                OSTmrCfgNameSize
                0x000000000001c3b0                OSTmrCfgWheelSize
                0x000000000001c3b2                OSTmrCfgTicksPerSec
                0x000000000001c3b4                OSTmrSize
                0x000000000001c3b6                OSTmrTblSize
                0x000000000001c3b8                OSTmrWheelSize
                0x000000000001c3ba                OSTmrWheelTblSize
                0x000000000001c3bc                OSDataSize
 *fill*         0x000000000001c3be        0x2 
 .sdata         0x000000000001c3c0        0x4 D:/Dev/vhdl/dev/testNIOS/audioVisualisator_bsp/\libucosii_bsp.a(alt_irq_vars.o)
                0x000000000001c3c0                alt_priority_mask
 .sdata         0x000000000001c3c4        0x8 D:/Dev/vhdl/dev/testNIOS/audioVisualisator_bsp/\libucosii_bsp.a(alt_tick.o)
                0x000000000001c3c4                alt_alarm_list
 *(.sdata2 .sdata2.* .gnu.linkonce.s2.*)
                0x000000000001c3cc                . = ALIGN (0x4)
                0x000000000001c3cc                _edata = ABSOLUTE (.)
                [!provide]                        PROVIDE (edata, ABSOLUTE (.))
                0x000000000001c3cc                PROVIDE (__ram_rwdata_end, ABSOLUTE (.))
                0x000000000001c3cc                PROVIDE (__flash_rwdata_start, LOADADDR (.rwdata))

.bss            0x000000000001e334     0x53f0
                0x000000000001e334                __bss_start = ABSOLUTE (.)
                [!provide]                        PROVIDE (__sbss_start, ABSOLUTE (.))
                [!provide]                        PROVIDE (___sbss_start, ABSOLUTE (.))
 *(.dynsbss)
 *(.sbss .sbss.* .gnu.linkonce.sb.*)
 .sbss          0x000000000001e334        0x8 obj/default/src/Display.o
                0x000000000001e334                colors
                0x000000000001e338                prevValues
 .sbss.__malloc_max_total_mem
                0x000000000001e33c        0x4 d:/dev/vhdl/program/nios2eds/bin/gnu/h-x86_64-mingw32/bin/../lib/gcc/nios2-elf/5.3.0/../../../../../H-x86_64-mingw32/nios2-elf/lib/mhw-mulx\libc.a(lib_a-mallocr.o)
                0x000000000001e33c                __malloc_max_total_mem
 .sbss.__malloc_max_sbrked_mem
                0x000000000001e340        0x4 d:/dev/vhdl/program/nios2eds/bin/gnu/h-x86_64-mingw32/bin/../lib/gcc/nios2-elf/5.3.0/../../../../../H-x86_64-mingw32/nios2-elf/lib/mhw-mulx\libc.a(lib_a-mallocr.o)
                0x000000000001e340                __malloc_max_sbrked_mem
 .sbss.__malloc_top_pad
                0x000000000001e344        0x4 d:/dev/vhdl/program/nios2eds/bin/gnu/h-x86_64-mingw32/bin/../lib/gcc/nios2-elf/5.3.0/../../../../../H-x86_64-mingw32/nios2-elf/lib/mhw-mulx\libc.a(lib_a-mallocr.o)
                0x000000000001e344                __malloc_top_pad
 .sbss          0x000000000001e348        0x4 d:/dev/vhdl/program/nios2eds/bin/gnu/h-x86_64-mingw32/bin/../lib/gcc/nios2-elf/5.3.0/../../../../../H-x86_64-mingw32/nios2-elf/lib/mhw-mulx\libc.a(lib_a-int_errno.o)
                0x000000000001e348                errno
 .sbss._PathLocale
                0x000000000001e34c        0x4 d:/dev/vhdl/program/nios2eds/bin/gnu/h-x86_64-mingw32/bin/../lib/gcc/nios2-elf/5.3.0/../../../../../H-x86_64-mingw32/nios2-elf/lib/mhw-mulx\libc.a(lib_a-locale.o)
                0x000000000001e34c                _PathLocale
 .sbss.__mlocale_changed
                0x000000000001e350        0x4 d:/dev/vhdl/program/nios2eds/bin/gnu/h-x86_64-mingw32/bin/../lib/gcc/nios2-elf/5.3.0/../../../../../H-x86_64-mingw32/nios2-elf/lib/mhw-mulx\libc.a(lib_a-locale.o)
                0x000000000001e350                __mlocale_changed
 .sbss.__nlocale_changed
                0x000000000001e354        0x4 d:/dev/vhdl/program/nios2eds/bin/gnu/h-x86_64-mingw32/bin/../lib/gcc/nios2-elf/5.3.0/../../../../../H-x86_64-mingw32/nios2-elf/lib/mhw-mulx\libc.a(lib_a-locale.o)
                0x000000000001e354                __nlocale_changed
 .sbss          0x000000000001e358        0x4 D:/Dev/vhdl/dev/testNIOS/audioVisualisator_bsp/\libucosii_bsp.a(alt_dev.o)
                0x000000000001e358                alt_fd_list_lock
 .sbss          0x000000000001e35c        0xc D:/Dev/vhdl/dev/testNIOS/audioVisualisator_bsp/\libucosii_bsp.a(alt_main.o)
                0x000000000001e35c                alt_argc
                0x000000000001e360                alt_argv
                0x000000000001e364                alt_envp
 .sbss          0x000000000001e368        0x8 D:/Dev/vhdl/dev/testNIOS/audioVisualisator_bsp/\libucosii_bsp.a(alt_env_lock.o)
                0x000000000001e36c                alt_envsem
 .sbss          0x000000000001e370        0x8 D:/Dev/vhdl/dev/testNIOS/audioVisualisator_bsp/\libucosii_bsp.a(alt_malloc_lock.o)
                0x000000000001e374                alt_heapsem
 .sbss          0x000000000001e378       0x50 D:/Dev/vhdl/dev/testNIOS/audioVisualisator_bsp/\libucosii_bsp.a(os_core.o)
                0x000000000001e378                OSLockNesting
                0x000000000001e379                OSRunning
                0x000000000001e37c                OSIdleCtr
                0x000000000001e380                OSPrioHighRdy
                0x000000000001e381                OSPrioCur
                0x000000000001e384                OSTCBList
                0x000000000001e388                OSTickStepState
                0x000000000001e38c                OSCtxSwCtr
                0x000000000001e390                OSIdleCtrMax
                0x000000000001e394                OSTCBFreeList
                0x000000000001e398                OSCPUUsage
                0x000000000001e399                OSTaskCtr
                0x000000000001e39c                OSMemFreeList
                0x000000000001e3a0                OSTCBHighRdy
                0x000000000001e3a4                OSQFreeList
                0x000000000001e3a8                OSRdyGrp
                0x000000000001e3a9                OSRdyTbl
                0x000000000001e3ac                OSEventFreeList
                0x000000000001e3b0                OSIntNesting
                0x000000000001e3b4                OSTCBCur
                0x000000000001e3b8                OSTime
                0x000000000001e3bc                OSFlagFreeList
                0x000000000001e3c0                OSStatRdy
                0x000000000001e3c4                OSIdleCtrRun
 .sbss          0x000000000001e3c8        0x4 D:/Dev/vhdl/dev/testNIOS/audioVisualisator_bsp/\libucosii_bsp.a(alt_irq_vars.o)
                0x000000000001e3c8                alt_irq_active
 .sbss          0x000000000001e3cc        0x8 D:/Dev/vhdl/dev/testNIOS/audioVisualisator_bsp/\libucosii_bsp.a(alt_tick.o)
                0x000000000001e3cc                _alt_tick_rate
                0x000000000001e3d0                _alt_nticks
 .sbss          0x000000000001e3d4        0x4 D:/Dev/vhdl/dev/testNIOS/audioVisualisator_bsp/\libucosii_bsp.a(alt_instruction_exception_entry.o)
                0x000000000001e3d4                alt_instruction_exception_handler
 *(.sbss2 .sbss2.* .gnu.linkonce.sb2.*)
 *(.scommon)
                [!provide]                        PROVIDE (__sbss_end, ABSOLUTE (.))
                [!provide]                        PROVIDE (___sbss_end, ABSOLUTE (.))
 *(.dynbss)
 *(.bss .bss.* .gnu.linkonce.b.*)
 .bss           0x000000000001e3d8        0x0 D:/Dev/vhdl/dev/testNIOS/audioVisualisator_bsp//obj/HAL/src/crt0.o
 .bss           0x000000000001e3d8        0x0 obj/default/hello_ucosii.o
 .bss           0x000000000001e3d8        0x0 obj/default/src/Audio.o
 .bss           0x000000000001e3d8        0x0 obj/default/src/Display.o
 .bss           0x000000000001e3d8        0x0 d:/dev/vhdl/program/nios2eds/bin/gnu/h-x86_64-mingw32/bin/../lib/gcc/nios2-elf/5.3.0/../../../../../H-x86_64-mingw32/nios2-elf/lib/mhw-mulx\libc.a(lib_a-malloc.o)
 .bss           0x000000000001e3d8        0x0 d:/dev/vhdl/program/nios2eds/bin/gnu/h-x86_64-mingw32/bin/../lib/gcc/nios2-elf/5.3.0/../../../../../H-x86_64-mingw32/nios2-elf/lib/mhw-mulx\libc.a(lib_a-mallocr.o)
 .bss.__malloc_current_mallinfo
                0x000000000001e3d8       0x28 d:/dev/vhdl/program/nios2eds/bin/gnu/h-x86_64-mingw32/bin/../lib/gcc/nios2-elf/5.3.0/../../../../../H-x86_64-mingw32/nios2-elf/lib/mhw-mulx\libc.a(lib_a-mallocr.o)
                0x000000000001e3d8                __malloc_current_mallinfo
 .bss           0x000000000001e400        0x0 d:/dev/vhdl/program/nios2eds/bin/gnu/h-x86_64-mingw32/bin/../lib/gcc/nios2-elf/5.3.0/../../../../../H-x86_64-mingw32/nios2-elf/lib/mhw-mulx\libc.a(lib_a-printf.o)
 .bss           0x000000000001e400        0x0 d:/dev/vhdl/program/nios2eds/bin/gnu/h-x86_64-mingw32/bin/../lib/gcc/nios2-elf/5.3.0/../../../../../H-x86_64-mingw32/nios2-elf/lib/mhw-mulx\libc.a(lib_a-rand.o)
 .bss           0x000000000001e400        0x0 d:/dev/vhdl/program/nios2eds/bin/gnu/h-x86_64-mingw32/bin/../lib/gcc/nios2-elf/5.3.0/../../../../../H-x86_64-mingw32/nios2-elf/lib/mhw-mulx\libc.a(lib_a-sbrkr.o)
 .bss           0x000000000001e400        0x0 d:/dev/vhdl/program/nios2eds/bin/gnu/h-x86_64-mingw32/bin/../lib/gcc/nios2-elf/5.3.0/../../../../../H-x86_64-mingw32/nios2-elf/lib/mhw-mulx\libc.a(lib_a-vfprintf.o)
 .bss           0x000000000001e400        0x0 d:/dev/vhdl/program/nios2eds/bin/gnu/h-x86_64-mingw32/bin/../lib/gcc/nios2-elf/5.3.0/../../../../../H-x86_64-mingw32/nios2-elf/lib/mhw-mulx\libc.a(lib_a-wsetup.o)
 .bss           0x000000000001e400        0x0 d:/dev/vhdl/program/nios2eds/bin/gnu/h-x86_64-mingw32/bin/../lib/gcc/nios2-elf/5.3.0/../../../../../H-x86_64-mingw32/nios2-elf/lib/mhw-mulx\libc.a(lib_a-dtoa.o)
 .bss           0x000000000001e400        0x0 d:/dev/vhdl/program/nios2eds/bin/gnu/h-x86_64-mingw32/bin/../lib/gcc/nios2-elf/5.3.0/../../../../../H-x86_64-mingw32/nios2-elf/lib/mhw-mulx\libc.a(lib_a-fflush.o)
 .bss           0x000000000001e400        0x0 d:/dev/vhdl/program/nios2eds/bin/gnu/h-x86_64-mingw32/bin/../lib/gcc/nios2-elf/5.3.0/../../../../../H-x86_64-mingw32/nios2-elf/lib/mhw-mulx\libc.a(lib_a-findfp.o)
 .bss           0x000000000001e400        0x0 d:/dev/vhdl/program/nios2eds/bin/gnu/h-x86_64-mingw32/bin/../lib/gcc/nios2-elf/5.3.0/../../../../../H-x86_64-mingw32/nios2-elf/lib/mhw-mulx\libc.a(lib_a-freer.o)
 .bss           0x000000000001e400        0x0 d:/dev/vhdl/program/nios2eds/bin/gnu/h-x86_64-mingw32/bin/../lib/gcc/nios2-elf/5.3.0/../../../../../H-x86_64-mingw32/nios2-elf/lib/mhw-mulx\libc.a(lib_a-fwalk.o)
 .bss           0x000000000001e400        0x0 d:/dev/vhdl/program/nios2eds/bin/gnu/h-x86_64-mingw32/bin/../lib/gcc/nios2-elf/5.3.0/../../../../../H-x86_64-mingw32/nios2-elf/lib/mhw-mulx\libc.a(lib_a-impure.o)
 .bss           0x000000000001e400        0x0 d:/dev/vhdl/program/nios2eds/bin/gnu/h-x86_64-mingw32/bin/../lib/gcc/nios2-elf/5.3.0/../../../../../H-x86_64-mingw32/nios2-elf/lib/mhw-mulx\libc.a(lib_a-int_errno.o)
 .bss           0x000000000001e400        0x0 d:/dev/vhdl/program/nios2eds/bin/gnu/h-x86_64-mingw32/bin/../lib/gcc/nios2-elf/5.3.0/../../../../../H-x86_64-mingw32/nios2-elf/lib/mhw-mulx\libc.a(lib_a-locale.o)
 .bss           0x000000000001e400        0x0 d:/dev/vhdl/program/nios2eds/bin/gnu/h-x86_64-mingw32/bin/../lib/gcc/nios2-elf/5.3.0/../../../../../H-x86_64-mingw32/nios2-elf/lib/mhw-mulx\libc.a(lib_a-makebuf.o)
 .bss           0x000000000001e400        0x0 d:/dev/vhdl/program/nios2eds/bin/gnu/h-x86_64-mingw32/bin/../lib/gcc/nios2-elf/5.3.0/../../../../../H-x86_64-mingw32/nios2-elf/lib/mhw-mulx\libc.a(lib_a-memchr.o)
 .bss           0x000000000001e400        0x0 d:/dev/vhdl/program/nios2eds/bin/gnu/h-x86_64-mingw32/bin/../lib/gcc/nios2-elf/5.3.0/../../../../../H-x86_64-mingw32/nios2-elf/lib/mhw-mulx\libc.a(lib_a-memcpy.o)
 .bss           0x000000000001e400        0x0 d:/dev/vhdl/program/nios2eds/bin/gnu/h-x86_64-mingw32/bin/../lib/gcc/nios2-elf/5.3.0/../../../../../H-x86_64-mingw32/nios2-elf/lib/mhw-mulx\libc.a(lib_a-memset.o)
 .bss           0x000000000001e400        0x0 d:/dev/vhdl/program/nios2eds/bin/gnu/h-x86_64-mingw32/bin/../lib/gcc/nios2-elf/5.3.0/../../../../../H-x86_64-mingw32/nios2-elf/lib/mhw-mulx\libc.a(lib_a-mprec.o)
 .bss           0x000000000001e400        0x0 d:/dev/vhdl/program/nios2eds/bin/gnu/h-x86_64-mingw32/bin/../lib/gcc/nios2-elf/5.3.0/../../../../../H-x86_64-mingw32/nios2-elf/lib/mhw-mulx\libc.a(lib_a-s_fpclassify.o)
 .bss           0x000000000001e400        0x0 d:/dev/vhdl/program/nios2eds/bin/gnu/h-x86_64-mingw32/bin/../lib/gcc/nios2-elf/5.3.0/../../../../../H-x86_64-mingw32/nios2-elf/lib/mhw-mulx\libc.a(lib_a-stdio.o)
 .bss           0x000000000001e400        0x0 d:/dev/vhdl/program/nios2eds/bin/gnu/h-x86_64-mingw32/bin/../lib/gcc/nios2-elf/5.3.0/../../../../../H-x86_64-mingw32/nios2-elf/lib/mhw-mulx\libc.a(lib_a-strcmp.o)
 .bss           0x000000000001e400        0x0 d:/dev/vhdl/program/nios2eds/bin/gnu/h-x86_64-mingw32/bin/../lib/gcc/nios2-elf/5.3.0/../../../../../H-x86_64-mingw32/nios2-elf/lib/mhw-mulx\libc.a(lib_a-strlen.o)
 .bss           0x000000000001e400        0x0 d:/dev/vhdl/program/nios2eds/bin/gnu/h-x86_64-mingw32/bin/../lib/gcc/nios2-elf/5.3.0/../../../../../H-x86_64-mingw32/nios2-elf/lib/mhw-mulx\libc.a(lib_a-vfiprintf.o)
 .bss           0x000000000001e400        0x0 d:/dev/vhdl/program/nios2eds/bin/gnu/h-x86_64-mingw32/bin/../lib/gcc/nios2-elf/5.3.0/../../../../../H-x86_64-mingw32/nios2-elf/lib/mhw-mulx\libc.a(lib_a-writer.o)
 .bss           0x000000000001e400        0x0 d:/dev/vhdl/program/nios2eds/bin/gnu/h-x86_64-mingw32/bin/../lib/gcc/nios2-elf/5.3.0/../../../../../H-x86_64-mingw32/nios2-elf/lib/mhw-mulx\libc.a(closer.o)
 .bss           0x000000000001e400        0x0 d:/dev/vhdl/program/nios2eds/bin/gnu/h-x86_64-mingw32/bin/../lib/gcc/nios2-elf/5.3.0/../../../../../H-x86_64-mingw32/nios2-elf/lib/mhw-mulx\libc.a(lib_a-callocr.o)
 .bss           0x000000000001e400        0x0 d:/dev/vhdl/program/nios2eds/bin/gnu/h-x86_64-mingw32/bin/../lib/gcc/nios2-elf/5.3.0/../../../../../H-x86_64-mingw32/nios2-elf/lib/mhw-mulx\libc.a(lib_a-fclose.o)
 .bss           0x000000000001e400        0x0 d:/dev/vhdl/program/nios2eds/bin/gnu/h-x86_64-mingw32/bin/../lib/gcc/nios2-elf/5.3.0/../../../../../H-x86_64-mingw32/nios2-elf/lib/mhw-mulx\libc.a(lib_a-fputwc.o)
 .bss           0x000000000001e400        0x0 d:/dev/vhdl/program/nios2eds/bin/gnu/h-x86_64-mingw32/bin/../lib/gcc/nios2-elf/5.3.0/../../../../../H-x86_64-mingw32/nios2-elf/lib/mhw-mulx\libc.a(lib_a-fstatr.o)
 .bss           0x000000000001e400        0x0 d:/dev/vhdl/program/nios2eds/bin/gnu/h-x86_64-mingw32/bin/../lib/gcc/nios2-elf/5.3.0/../../../../../H-x86_64-mingw32/nios2-elf/lib/mhw-mulx\libc.a(lib_a-fvwrite.o)
 .bss           0x000000000001e400        0x0 d:/dev/vhdl/program/nios2eds/bin/gnu/h-x86_64-mingw32/bin/../lib/gcc/nios2-elf/5.3.0/../../../../../H-x86_64-mingw32/nios2-elf/lib/mhw-mulx\libc.a(lib_a-isattyr.o)
 .bss           0x000000000001e400        0x0 d:/dev/vhdl/program/nios2eds/bin/gnu/h-x86_64-mingw32/bin/../lib/gcc/nios2-elf/5.3.0/../../../../../H-x86_64-mingw32/nios2-elf/lib/mhw-mulx\libc.a(lib_a-lseekr.o)
 .bss           0x000000000001e400        0x0 d:/dev/vhdl/program/nios2eds/bin/gnu/h-x86_64-mingw32/bin/../lib/gcc/nios2-elf/5.3.0/../../../../../H-x86_64-mingw32/nios2-elf/lib/mhw-mulx\libc.a(lib_a-memmove.o)
 .bss           0x000000000001e400        0x0 d:/dev/vhdl/program/nios2eds/bin/gnu/h-x86_64-mingw32/bin/../lib/gcc/nios2-elf/5.3.0/../../../../../H-x86_64-mingw32/nios2-elf/lib/mhw-mulx\libc.a(lib_a-readr.o)
 .bss           0x000000000001e400        0x0 d:/dev/vhdl/program/nios2eds/bin/gnu/h-x86_64-mingw32/bin/../lib/gcc/nios2-elf/5.3.0/../../../../../H-x86_64-mingw32/nios2-elf/lib/mhw-mulx\libc.a(lib_a-reallocr.o)
 .bss           0x000000000001e400        0x0 d:/dev/vhdl/program/nios2eds/bin/gnu/h-x86_64-mingw32/bin/../lib/gcc/nios2-elf/5.3.0/../../../../../H-x86_64-mingw32/nios2-elf/lib/mhw-mulx\libc.a(lib_a-wbuf.o)
 .bss           0x000000000001e400        0x0 d:/dev/vhdl/program/nios2eds/bin/gnu/h-x86_64-mingw32/bin/../lib/gcc/nios2-elf/5.3.0/../../../../../H-x86_64-mingw32/nios2-elf/lib/mhw-mulx\libc.a(lib_a-wcrtomb.o)
 .bss           0x000000000001e400        0x0 d:/dev/vhdl/program/nios2eds/bin/gnu/h-x86_64-mingw32/bin/../lib/gcc/nios2-elf/5.3.0/../../../../../H-x86_64-mingw32/nios2-elf/lib/mhw-mulx\libc.a(lib_a-wctomb_r.o)
 .bss           0x000000000001e400        0x0 d:/dev/vhdl/program/nios2eds/bin/gnu/h-x86_64-mingw32/bin/../lib/gcc/nios2-elf/5.3.0/mhw-mulx\libgcc.a(_udivdi3.o)
 .bss           0x000000000001e400        0x0 d:/dev/vhdl/program/nios2eds/bin/gnu/h-x86_64-mingw32/bin/../lib/gcc/nios2-elf/5.3.0/mhw-mulx\libgcc.a(_umoddi3.o)
 .bss           0x000000000001e400        0x0 d:/dev/vhdl/program/nios2eds/bin/gnu/h-x86_64-mingw32/bin/../lib/gcc/nios2-elf/5.3.0/mhw-mulx\libgcc.a(lib2-divmod.o)
 .bss           0x000000000001e400        0x0 d:/dev/vhdl/program/nios2eds/bin/gnu/h-x86_64-mingw32/bin/../lib/gcc/nios2-elf/5.3.0/mhw-mulx\libgcc.a(adddf3.o)
 .bss           0x000000000001e400        0x0 d:/dev/vhdl/program/nios2eds/bin/gnu/h-x86_64-mingw32/bin/../lib/gcc/nios2-elf/5.3.0/mhw-mulx\libgcc.a(divdf3.o)
 .bss           0x000000000001e400        0x0 d:/dev/vhdl/program/nios2eds/bin/gnu/h-x86_64-mingw32/bin/../lib/gcc/nios2-elf/5.3.0/mhw-mulx\libgcc.a(eqdf2.o)
 .bss           0x000000000001e400        0x0 d:/dev/vhdl/program/nios2eds/bin/gnu/h-x86_64-mingw32/bin/../lib/gcc/nios2-elf/5.3.0/mhw-mulx\libgcc.a(gedf2.o)
 .bss           0x000000000001e400        0x0 d:/dev/vhdl/program/nios2eds/bin/gnu/h-x86_64-mingw32/bin/../lib/gcc/nios2-elf/5.3.0/mhw-mulx\libgcc.a(ledf2.o)
 .bss           0x000000000001e400        0x0 d:/dev/vhdl/program/nios2eds/bin/gnu/h-x86_64-mingw32/bin/../lib/gcc/nios2-elf/5.3.0/mhw-mulx\libgcc.a(muldf3.o)
 .bss           0x000000000001e400        0x0 d:/dev/vhdl/program/nios2eds/bin/gnu/h-x86_64-mingw32/bin/../lib/gcc/nios2-elf/5.3.0/mhw-mulx\libgcc.a(subdf3.o)
 .bss           0x000000000001e400        0x0 d:/dev/vhdl/program/nios2eds/bin/gnu/h-x86_64-mingw32/bin/../lib/gcc/nios2-elf/5.3.0/mhw-mulx\libgcc.a(fixdfsi.o)
 .bss           0x000000000001e400        0x0 d:/dev/vhdl/program/nios2eds/bin/gnu/h-x86_64-mingw32/bin/../lib/gcc/nios2-elf/5.3.0/mhw-mulx\libgcc.a(floatsidf.o)
 .bss           0x000000000001e400        0x0 d:/dev/vhdl/program/nios2eds/bin/gnu/h-x86_64-mingw32/bin/../lib/gcc/nios2-elf/5.3.0/mhw-mulx\libgcc.a(floatunsidf.o)
 .bss           0x000000000001e400        0x0 d:/dev/vhdl/program/nios2eds/bin/gnu/h-x86_64-mingw32/bin/../lib/gcc/nios2-elf/5.3.0/mhw-mulx\libgcc.a(_clz.o)
 .bss           0x000000000001e400        0x0 d:/dev/vhdl/program/nios2eds/bin/gnu/h-x86_64-mingw32/bin/../lib/gcc/nios2-elf/5.3.0/mhw-mulx\libgcc.a(_clzsi2.o)
 .bss           0x000000000001e400        0x0 D:/Dev/vhdl/dev/testNIOS/audioVisualisator_bsp/\libucosii_bsp.a(alt_close.o)
 .bss           0x000000000001e400        0x0 D:/Dev/vhdl/dev/testNIOS/audioVisualisator_bsp/\libucosii_bsp.a(alt_dev.o)
 .bss           0x000000000001e400        0x0 D:/Dev/vhdl/dev/testNIOS/audioVisualisator_bsp/\libucosii_bsp.a(alt_errno.o)
 .bss           0x000000000001e400        0x0 D:/Dev/vhdl/dev/testNIOS/audioVisualisator_bsp/\libucosii_bsp.a(alt_fstat.o)
 .bss           0x000000000001e400        0x0 D:/Dev/vhdl/dev/testNIOS/audioVisualisator_bsp/\libucosii_bsp.a(alt_isatty.o)
 .bss           0x000000000001e400        0x0 D:/Dev/vhdl/dev/testNIOS/audioVisualisator_bsp/\libucosii_bsp.a(alt_load.o)
 .bss           0x000000000001e400        0x0 D:/Dev/vhdl/dev/testNIOS/audioVisualisator_bsp/\libucosii_bsp.a(alt_lseek.o)
 .bss           0x000000000001e400        0x0 D:/Dev/vhdl/dev/testNIOS/audioVisualisator_bsp/\libucosii_bsp.a(alt_main.o)
 .bss           0x000000000001e400        0x0 D:/Dev/vhdl/dev/testNIOS/audioVisualisator_bsp/\libucosii_bsp.a(alt_read.o)
 .bss           0x000000000001e400        0x0 D:/Dev/vhdl/dev/testNIOS/audioVisualisator_bsp/\libucosii_bsp.a(alt_release_fd.o)
 .bss           0x000000000001e400        0x0 D:/Dev/vhdl/dev/testNIOS/audioVisualisator_bsp/\libucosii_bsp.a(alt_sbrk.o)
 .bss           0x000000000001e400        0x0 D:/Dev/vhdl/dev/testNIOS/audioVisualisator_bsp/\libucosii_bsp.a(alt_write.o)
 .bss           0x000000000001e400        0x0 D:/Dev/vhdl/dev/testNIOS/audioVisualisator_bsp/\libucosii_bsp.a(alt_env_lock.o)
 .bss           0x000000000001e400        0x0 D:/Dev/vhdl/dev/testNIOS/audioVisualisator_bsp/\libucosii_bsp.a(alt_malloc_lock.o)
 .bss           0x000000000001e400        0x0 D:/Dev/vhdl/dev/testNIOS/audioVisualisator_bsp/\libucosii_bsp.a(os_core.o)
 .bss           0x000000000001e400        0x0 D:/Dev/vhdl/dev/testNIOS/audioVisualisator_bsp/\libucosii_bsp.a(os_dbg.o)
 .bss           0x000000000001e400        0x0 D:/Dev/vhdl/dev/testNIOS/audioVisualisator_bsp/\libucosii_bsp.a(os_flag.o)
 .bss           0x000000000001e400        0x0 D:/Dev/vhdl/dev/testNIOS/audioVisualisator_bsp/\libucosii_bsp.a(os_mem.o)
 .bss           0x000000000001e400        0x0 D:/Dev/vhdl/dev/testNIOS/audioVisualisator_bsp/\libucosii_bsp.a(os_q.o)
 .bss           0x000000000001e400        0x0 D:/Dev/vhdl/dev/testNIOS/audioVisualisator_bsp/\libucosii_bsp.a(os_sem.o)
 .bss           0x000000000001e400        0x0 D:/Dev/vhdl/dev/testNIOS/audioVisualisator_bsp/\libucosii_bsp.a(os_task.o)
 .bss           0x000000000001e400        0x0 D:/Dev/vhdl/dev/testNIOS/audioVisualisator_bsp/\libucosii_bsp.a(os_time.o)
 .bss           0x000000000001e400        0x0 D:/Dev/vhdl/dev/testNIOS/audioVisualisator_bsp/\libucosii_bsp.a(alt_sys_init.o)
 .bss           0x000000000001e400        0x0 D:/Dev/vhdl/dev/testNIOS/audioVisualisator_bsp/\libucosii_bsp.a(altera_avalon_jtag_uart_fd.o)
 .bss           0x000000000001e400        0x0 D:/Dev/vhdl/dev/testNIOS/audioVisualisator_bsp/\libucosii_bsp.a(altera_avalon_jtag_uart_init.o)
 .bss           0x000000000001e400        0x0 D:/Dev/vhdl/dev/testNIOS/audioVisualisator_bsp/\libucosii_bsp.a(altera_avalon_jtag_uart_ioctl.o)
 .bss           0x000000000001e400        0x0 D:/Dev/vhdl/dev/testNIOS/audioVisualisator_bsp/\libucosii_bsp.a(altera_avalon_jtag_uart_read.o)
 .bss           0x000000000001e400        0x0 D:/Dev/vhdl/dev/testNIOS/audioVisualisator_bsp/\libucosii_bsp.a(altera_avalon_jtag_uart_write.o)
 .bss           0x000000000001e400        0x0 D:/Dev/vhdl/dev/testNIOS/audioVisualisator_bsp/\libucosii_bsp.a(altera_avalon_timer_sc.o)
 .bss           0x000000000001e400        0x0 D:/Dev/vhdl/dev/testNIOS/audioVisualisator_bsp/\libucosii_bsp.a(altera_up_avalon_audio.o)
 .bss           0x000000000001e400        0x0 D:/Dev/vhdl/dev/testNIOS/audioVisualisator_bsp/\libucosii_bsp.a(altera_up_avalon_character_lcd.o)
 .bss           0x000000000001e400        0x0 D:/Dev/vhdl/dev/testNIOS/audioVisualisator_bsp/\libucosii_bsp.a(altera_up_avalon_irda.o)
 .bss           0x000000000001e400        0x0 D:/Dev/vhdl/dev/testNIOS/audioVisualisator_bsp/\libucosii_bsp.a(altera_up_avalon_ps2.o)
 .bss           0x000000000001e400        0x0 D:/Dev/vhdl/dev/testNIOS/audioVisualisator_bsp/\libucosii_bsp.a(altera_up_avalon_rs232.o)
 .bss           0x000000000001e400        0x0 D:/Dev/vhdl/dev/testNIOS/audioVisualisator_bsp/\libucosii_bsp.a(alt_alarm_start.o)
 .bss           0x000000000001e400        0x0 D:/Dev/vhdl/dev/testNIOS/audioVisualisator_bsp/\libucosii_bsp.a(alt_dcache_flush_all.o)
 .bss           0x000000000001e400        0x0 D:/Dev/vhdl/dev/testNIOS/audioVisualisator_bsp/\libucosii_bsp.a(alt_dev_llist_insert.o)
 .bss           0x000000000001e400        0x0 D:/Dev/vhdl/dev/testNIOS/audioVisualisator_bsp/\libucosii_bsp.a(alt_do_ctors.o)
 .bss           0x000000000001e400        0x0 D:/Dev/vhdl/dev/testNIOS/audioVisualisator_bsp/\libucosii_bsp.a(alt_do_dtors.o)
 .bss           0x000000000001e400        0x0 D:/Dev/vhdl/dev/testNIOS/audioVisualisator_bsp/\libucosii_bsp.a(alt_find_dev.o)
 .bss           0x000000000001e400        0x0 D:/Dev/vhdl/dev/testNIOS/audioVisualisator_bsp/\libucosii_bsp.a(alt_icache_flush_all.o)
 .bss           0x000000000001e400        0x0 D:/Dev/vhdl/dev/testNIOS/audioVisualisator_bsp/\libucosii_bsp.a(alt_io_redirect.o)
 .bss           0x000000000001e400        0x0 D:/Dev/vhdl/dev/testNIOS/audioVisualisator_bsp/\libucosii_bsp.a(alt_irq_register.o)
 .bss           0x000000000001e400        0x0 D:/Dev/vhdl/dev/testNIOS/audioVisualisator_bsp/\libucosii_bsp.a(alt_irq_vars.o)
 .bss           0x000000000001e400        0x0 D:/Dev/vhdl/dev/testNIOS/audioVisualisator_bsp/\libucosii_bsp.a(alt_open.o)
 .bss           0x000000000001e400        0x0 D:/Dev/vhdl/dev/testNIOS/audioVisualisator_bsp/\libucosii_bsp.a(alt_tick.o)
 .bss           0x000000000001e400        0x0 D:/Dev/vhdl/dev/testNIOS/audioVisualisator_bsp/\libucosii_bsp.a(altera_nios2_gen2_irq.o)
 .bss           0x000000000001e400        0x0 D:/Dev/vhdl/dev/testNIOS/audioVisualisator_bsp/\libucosii_bsp.a(os_cpu_a.o)
 .bss           0x000000000001e400        0x0 D:/Dev/vhdl/dev/testNIOS/audioVisualisator_bsp/\libucosii_bsp.a(os_cpu_c.o)
 .bss           0x000000000001e400        0x0 D:/Dev/vhdl/dev/testNIOS/audioVisualisator_bsp/\libucosii_bsp.a(alt_find_file.o)
 .bss           0x000000000001e400        0x0 D:/Dev/vhdl/dev/testNIOS/audioVisualisator_bsp/\libucosii_bsp.a(alt_get_fd.o)
 .bss           0x000000000001e400        0x0 D:/Dev/vhdl/dev/testNIOS/audioVisualisator_bsp/\libucosii_bsp.a(alt_icache_flush.o)
 .bss           0x000000000001e400        0x0 D:/Dev/vhdl/dev/testNIOS/audioVisualisator_bsp/\libucosii_bsp.a(alt_irq_entry.o)
 .bss           0x000000000001e400        0x0 D:/Dev/vhdl/dev/testNIOS/audioVisualisator_bsp/\libucosii_bsp.a(alt_irq_handler.o)
 .bss           0x000000000001e400        0x0 D:/Dev/vhdl/dev/testNIOS/audioVisualisator_bsp/\libucosii_bsp.a(alt_exception_entry.o)
 .bss           0x000000000001e400        0x0 D:/Dev/vhdl/dev/testNIOS/audioVisualisator_bsp/\libucosii_bsp.a(alt_instruction_exception_entry.o)
 .bss           0x000000000001e400        0x0 d:/dev/vhdl/program/nios2eds/bin/gnu/h-x86_64-mingw32/bin/../lib/gcc/nios2-elf/5.3.0/../../../../../H-x86_64-mingw32/nios2-elf/lib/mhw-mulx\libc.a(lib_a-atexit.o)
 .bss           0x000000000001e400        0x0 d:/dev/vhdl/program/nios2eds/bin/gnu/h-x86_64-mingw32/bin/../lib/gcc/nios2-elf/5.3.0/../../../../../H-x86_64-mingw32/nios2-elf/lib/mhw-mulx\libc.a(lib_a-exit.o)
 .bss           0x000000000001e400        0x0 d:/dev/vhdl/program/nios2eds/bin/gnu/h-x86_64-mingw32/bin/../lib/gcc/nios2-elf/5.3.0/../../../../../H-x86_64-mingw32/nios2-elf/lib/mhw-mulx\libc.a(lib_a-memcmp.o)
 .bss           0x000000000001e400        0x0 d:/dev/vhdl/program/nios2eds/bin/gnu/h-x86_64-mingw32/bin/../lib/gcc/nios2-elf/5.3.0/../../../../../H-x86_64-mingw32/nios2-elf/lib/mhw-mulx\libc.a(lib_a-__atexit.o)
 .bss           0x000000000001e400        0x0 d:/dev/vhdl/program/nios2eds/bin/gnu/h-x86_64-mingw32/bin/../lib/gcc/nios2-elf/5.3.0/../../../../../H-x86_64-mingw32/nios2-elf/lib/mhw-mulx\libc.a(lib_a-__call_atexit.o)
 .bss           0x000000000001e400        0x0 D:/Dev/vhdl/dev/testNIOS/audioVisualisator_bsp/\libucosii_bsp.a(alt_exit.o)
 *(COMMON)
 COMMON         0x000000000001e400     0x2000 obj/default/hello_ucosii.o
                0x000000000001e400                task1_stk
 COMMON         0x0000000000020400     0x3224 D:/Dev/vhdl/dev/testNIOS/audioVisualisator_bsp/\libucosii_bsp.a(os_core.o)
                0x0000000000020400                OSFlagTbl
                0x0000000000020770                OSMemTbl
                0x00000000000213a0                OSTaskStatStk
                0x0000000000021ba0                OSQTbl
                0x0000000000021d80                OSTaskIdleStk
                0x0000000000022580                OSEventTbl
                0x00000000000230c0                OSTCBTbl
                0x00000000000235d0                OSTCBPrioTbl
 COMMON         0x0000000000023624      0x100 D:/Dev/vhdl/dev/testNIOS/audioVisualisator_bsp/\libucosii_bsp.a(alt_irq_handler.o)
                0x0000000000023624                alt_irq
                0x0000000000023724                . = ALIGN (0x4)
                0x0000000000023724                __bss_end = ABSOLUTE (.)

.SDRAM          0x0000000000023724        0x0
                [!provide]                        PROVIDE (_alt_partition_SDRAM_start, ABSOLUTE (.))
 *(.SDRAM .SDRAM. SDRAM.*)
                0x0000000000023724                . = ALIGN (0x4)
                [!provide]                        PROVIDE (_alt_partition_SDRAM_end, ABSOLUTE (.))
                0x0000000000023724                _end = ABSOLUTE (.)
                0x0000000000023724                end = ABSOLUTE (.)
                0x0000000000023724                __alt_stack_base = ABSOLUTE (.)
                [!provide]                        PROVIDE (_alt_partition_SDRAM_load_addr, LOADADDR (.SDRAM))

.VGA_Subsystem_Char_Buf_Subsystem_Onchip_SRAM
                0x0000000009000000        0x0 load address 0x0000000000023724
                [!provide]                        PROVIDE (_alt_partition_VGA_Subsystem_Char_Buf_Subsystem_Onchip_SRAM_start, ABSOLUTE (.))
 *(.VGA_Subsystem_Char_Buf_Subsystem_Onchip_SRAM .VGA_Subsystem_Char_Buf_Subsystem_Onchip_SRAM. VGA_Subsystem_Char_Buf_Subsystem_Onchip_SRAM.*)
                0x0000000009000000                . = ALIGN (0x4)
                [!provide]                        PROVIDE (_alt_partition_VGA_Subsystem_Char_Buf_Subsystem_Onchip_SRAM_end, ABSOLUTE (.))
                [!provide]                        PROVIDE (_alt_partition_VGA_Subsystem_Char_Buf_Subsystem_Onchip_SRAM_load_addr, LOADADDR (.VGA_Subsystem_Char_Buf_Subsystem_Onchip_SRAM))

.stab
 *(.stab)

.stabstr
 *(.stabstr)

.stab.excl
 *(.stab.excl)

.stab.exclstr
 *(.stab.exclstr)

.stab.index
 *(.stab.index)

.stab.indexstr
 *(.stab.indexstr)

.comment        0x0000000000000000       0x23
 *(.comment)
 .comment       0x0000000000000000       0x23 obj/default/hello_ucosii.o
                                         0x24 (size before relaxing)
 .comment       0x0000000000000023       0x24 obj/default/src/Audio.o
 .comment       0x0000000000000023       0x24 obj/default/src/Display.o
 .comment       0x0000000000000023       0x24 d:/dev/vhdl/program/nios2eds/bin/gnu/h-x86_64-mingw32/bin/../lib/gcc/nios2-elf/5.3.0/../../../../../H-x86_64-mingw32/nios2-elf/lib/mhw-mulx\libc.a(lib_a-malloc.o)
 .comment       0x0000000000000023       0x24 d:/dev/vhdl/program/nios2eds/bin/gnu/h-x86_64-mingw32/bin/../lib/gcc/nios2-elf/5.3.0/../../../../../H-x86_64-mingw32/nios2-elf/lib/mhw-mulx\libc.a(lib_a-mallocr.o)
 .comment       0x0000000000000023       0x24 d:/dev/vhdl/program/nios2eds/bin/gnu/h-x86_64-mingw32/bin/../lib/gcc/nios2-elf/5.3.0/../../../../../H-x86_64-mingw32/nios2-elf/lib/mhw-mulx\libc.a(lib_a-printf.o)
 .comment       0x0000000000000023       0x24 d:/dev/vhdl/program/nios2eds/bin/gnu/h-x86_64-mingw32/bin/../lib/gcc/nios2-elf/5.3.0/../../../../../H-x86_64-mingw32/nios2-elf/lib/mhw-mulx\libc.a(lib_a-rand.o)
 .comment       0x0000000000000023       0x24 d:/dev/vhdl/program/nios2eds/bin/gnu/h-x86_64-mingw32/bin/../lib/gcc/nios2-elf/5.3.0/../../../../../H-x86_64-mingw32/nios2-elf/lib/mhw-mulx\libc.a(lib_a-sbrkr.o)
 .comment       0x0000000000000023       0x24 d:/dev/vhdl/program/nios2eds/bin/gnu/h-x86_64-mingw32/bin/../lib/gcc/nios2-elf/5.3.0/../../../../../H-x86_64-mingw32/nios2-elf/lib/mhw-mulx\libc.a(lib_a-vfprintf.o)
 .comment       0x0000000000000023       0x24 d:/dev/vhdl/program/nios2eds/bin/gnu/h-x86_64-mingw32/bin/../lib/gcc/nios2-elf/5.3.0/../../../../../H-x86_64-mingw32/nios2-elf/lib/mhw-mulx\libc.a(lib_a-wsetup.o)
 .comment       0x0000000000000023       0x24 d:/dev/vhdl/program/nios2eds/bin/gnu/h-x86_64-mingw32/bin/../lib/gcc/nios2-elf/5.3.0/../../../../../H-x86_64-mingw32/nios2-elf/lib/mhw-mulx\libc.a(lib_a-dtoa.o)
 .comment       0x0000000000000023       0x24 d:/dev/vhdl/program/nios2eds/bin/gnu/h-x86_64-mingw32/bin/../lib/gcc/nios2-elf/5.3.0/../../../../../H-x86_64-mingw32/nios2-elf/lib/mhw-mulx\libc.a(lib_a-fflush.o)
 .comment       0x0000000000000023       0x24 d:/dev/vhdl/program/nios2eds/bin/gnu/h-x86_64-mingw32/bin/../lib/gcc/nios2-elf/5.3.0/../../../../../H-x86_64-mingw32/nios2-elf/lib/mhw-mulx\libc.a(lib_a-findfp.o)
 .comment       0x0000000000000023       0x24 d:/dev/vhdl/program/nios2eds/bin/gnu/h-x86_64-mingw32/bin/../lib/gcc/nios2-elf/5.3.0/../../../../../H-x86_64-mingw32/nios2-elf/lib/mhw-mulx\libc.a(lib_a-freer.o)
 .comment       0x0000000000000023       0x24 d:/dev/vhdl/program/nios2eds/bin/gnu/h-x86_64-mingw32/bin/../lib/gcc/nios2-elf/5.3.0/../../../../../H-x86_64-mingw32/nios2-elf/lib/mhw-mulx\libc.a(lib_a-fwalk.o)
 .comment       0x0000000000000023       0x24 d:/dev/vhdl/program/nios2eds/bin/gnu/h-x86_64-mingw32/bin/../lib/gcc/nios2-elf/5.3.0/../../../../../H-x86_64-mingw32/nios2-elf/lib/mhw-mulx\libc.a(lib_a-impure.o)
 .comment       0x0000000000000023       0x24 d:/dev/vhdl/program/nios2eds/bin/gnu/h-x86_64-mingw32/bin/../lib/gcc/nios2-elf/5.3.0/../../../../../H-x86_64-mingw32/nios2-elf/lib/mhw-mulx\libc.a(lib_a-int_errno.o)
 .comment       0x0000000000000023       0x24 d:/dev/vhdl/program/nios2eds/bin/gnu/h-x86_64-mingw32/bin/../lib/gcc/nios2-elf/5.3.0/../../../../../H-x86_64-mingw32/nios2-elf/lib/mhw-mulx\libc.a(lib_a-locale.o)
 .comment       0x0000000000000023       0x24 d:/dev/vhdl/program/nios2eds/bin/gnu/h-x86_64-mingw32/bin/../lib/gcc/nios2-elf/5.3.0/../../../../../H-x86_64-mingw32/nios2-elf/lib/mhw-mulx\libc.a(lib_a-makebuf.o)
 .comment       0x0000000000000023       0x24 d:/dev/vhdl/program/nios2eds/bin/gnu/h-x86_64-mingw32/bin/../lib/gcc/nios2-elf/5.3.0/../../../../../H-x86_64-mingw32/nios2-elf/lib/mhw-mulx\libc.a(lib_a-memchr.o)
 .comment       0x0000000000000023       0x24 d:/dev/vhdl/program/nios2eds/bin/gnu/h-x86_64-mingw32/bin/../lib/gcc/nios2-elf/5.3.0/../../../../../H-x86_64-mingw32/nios2-elf/lib/mhw-mulx\libc.a(lib_a-memcpy.o)
 .comment       0x0000000000000023       0x24 d:/dev/vhdl/program/nios2eds/bin/gnu/h-x86_64-mingw32/bin/../lib/gcc/nios2-elf/5.3.0/../../../../../H-x86_64-mingw32/nios2-elf/lib/mhw-mulx\libc.a(lib_a-memset.o)
 .comment       0x0000000000000023       0x24 d:/dev/vhdl/program/nios2eds/bin/gnu/h-x86_64-mingw32/bin/../lib/gcc/nios2-elf/5.3.0/../../../../../H-x86_64-mingw32/nios2-elf/lib/mhw-mulx\libc.a(lib_a-mprec.o)
 .comment       0x0000000000000023       0x24 d:/dev/vhdl/program/nios2eds/bin/gnu/h-x86_64-mingw32/bin/../lib/gcc/nios2-elf/5.3.0/../../../../../H-x86_64-mingw32/nios2-elf/lib/mhw-mulx\libc.a(lib_a-s_fpclassify.o)
 .comment       0x0000000000000023       0x24 d:/dev/vhdl/program/nios2eds/bin/gnu/h-x86_64-mingw32/bin/../lib/gcc/nios2-elf/5.3.0/../../../../../H-x86_64-mingw32/nios2-elf/lib/mhw-mulx\libc.a(lib_a-stdio.o)
 .comment       0x0000000000000023       0x24 d:/dev/vhdl/program/nios2eds/bin/gnu/h-x86_64-mingw32/bin/../lib/gcc/nios2-elf/5.3.0/../../../../../H-x86_64-mingw32/nios2-elf/lib/mhw-mulx\libc.a(lib_a-strcmp.o)
 .comment       0x0000000000000023       0x24 d:/dev/vhdl/program/nios2eds/bin/gnu/h-x86_64-mingw32/bin/../lib/gcc/nios2-elf/5.3.0/../../../../../H-x86_64-mingw32/nios2-elf/lib/mhw-mulx\libc.a(lib_a-strlen.o)
 .comment       0x0000000000000023       0x24 d:/dev/vhdl/program/nios2eds/bin/gnu/h-x86_64-mingw32/bin/../lib/gcc/nios2-elf/5.3.0/../../../../../H-x86_64-mingw32/nios2-elf/lib/mhw-mulx\libc.a(lib_a-vfiprintf.o)
 .comment       0x0000000000000023       0x24 d:/dev/vhdl/program/nios2eds/bin/gnu/h-x86_64-mingw32/bin/../lib/gcc/nios2-elf/5.3.0/../../../../../H-x86_64-mingw32/nios2-elf/lib/mhw-mulx\libc.a(lib_a-writer.o)
 .comment       0x0000000000000023       0x24 d:/dev/vhdl/program/nios2eds/bin/gnu/h-x86_64-mingw32/bin/../lib/gcc/nios2-elf/5.3.0/../../../../../H-x86_64-mingw32/nios2-elf/lib/mhw-mulx\libc.a(closer.o)
 .comment       0x0000000000000023       0x24 d:/dev/vhdl/program/nios2eds/bin/gnu/h-x86_64-mingw32/bin/../lib/gcc/nios2-elf/5.3.0/../../../../../H-x86_64-mingw32/nios2-elf/lib/mhw-mulx\libc.a(lib_a-callocr.o)
 .comment       0x0000000000000023       0x24 d:/dev/vhdl/program/nios2eds/bin/gnu/h-x86_64-mingw32/bin/../lib/gcc/nios2-elf/5.3.0/../../../../../H-x86_64-mingw32/nios2-elf/lib/mhw-mulx\libc.a(lib_a-fclose.o)
 .comment       0x0000000000000023       0x24 d:/dev/vhdl/program/nios2eds/bin/gnu/h-x86_64-mingw32/bin/../lib/gcc/nios2-elf/5.3.0/../../../../../H-x86_64-mingw32/nios2-elf/lib/mhw-mulx\libc.a(lib_a-fputwc.o)
 .comment       0x0000000000000023       0x24 d:/dev/vhdl/program/nios2eds/bin/gnu/h-x86_64-mingw32/bin/../lib/gcc/nios2-elf/5.3.0/../../../../../H-x86_64-mingw32/nios2-elf/lib/mhw-mulx\libc.a(lib_a-fstatr.o)
 .comment       0x0000000000000023       0x24 d:/dev/vhdl/program/nios2eds/bin/gnu/h-x86_64-mingw32/bin/../lib/gcc/nios2-elf/5.3.0/../../../../../H-x86_64-mingw32/nios2-elf/lib/mhw-mulx\libc.a(lib_a-fvwrite.o)
 .comment       0x0000000000000023       0x24 d:/dev/vhdl/program/nios2eds/bin/gnu/h-x86_64-mingw32/bin/../lib/gcc/nios2-elf/5.3.0/../../../../../H-x86_64-mingw32/nios2-elf/lib/mhw-mulx\libc.a(lib_a-isattyr.o)
 .comment       0x0000000000000023       0x24 d:/dev/vhdl/program/nios2eds/bin/gnu/h-x86_64-mingw32/bin/../lib/gcc/nios2-elf/5.3.0/../../../../../H-x86_64-mingw32/nios2-elf/lib/mhw-mulx\libc.a(lib_a-lseekr.o)
 .comment       0x0000000000000023       0x24 d:/dev/vhdl/program/nios2eds/bin/gnu/h-x86_64-mingw32/bin/../lib/gcc/nios2-elf/5.3.0/../../../../../H-x86_64-mingw32/nios2-elf/lib/mhw-mulx\libc.a(lib_a-memmove.o)
 .comment       0x0000000000000023       0x24 d:/dev/vhdl/program/nios2eds/bin/gnu/h-x86_64-mingw32/bin/../lib/gcc/nios2-elf/5.3.0/../../../../../H-x86_64-mingw32/nios2-elf/lib/mhw-mulx\libc.a(lib_a-readr.o)
 .comment       0x0000000000000023       0x24 d:/dev/vhdl/program/nios2eds/bin/gnu/h-x86_64-mingw32/bin/../lib/gcc/nios2-elf/5.3.0/../../../../../H-x86_64-mingw32/nios2-elf/lib/mhw-mulx\libc.a(lib_a-reallocr.o)
 .comment       0x0000000000000023       0x24 d:/dev/vhdl/program/nios2eds/bin/gnu/h-x86_64-mingw32/bin/../lib/gcc/nios2-elf/5.3.0/../../../../../H-x86_64-mingw32/nios2-elf/lib/mhw-mulx\libc.a(lib_a-wbuf.o)
 .comment       0x0000000000000023       0x24 d:/dev/vhdl/program/nios2eds/bin/gnu/h-x86_64-mingw32/bin/../lib/gcc/nios2-elf/5.3.0/../../../../../H-x86_64-mingw32/nios2-elf/lib/mhw-mulx\libc.a(lib_a-wcrtomb.o)
 .comment       0x0000000000000023       0x24 d:/dev/vhdl/program/nios2eds/bin/gnu/h-x86_64-mingw32/bin/../lib/gcc/nios2-elf/5.3.0/../../../../../H-x86_64-mingw32/nios2-elf/lib/mhw-mulx\libc.a(lib_a-wctomb_r.o)
 .comment       0x0000000000000023       0x24 d:/dev/vhdl/program/nios2eds/bin/gnu/h-x86_64-mingw32/bin/../lib/gcc/nios2-elf/5.3.0/mhw-mulx\libgcc.a(_udivdi3.o)
 .comment       0x0000000000000023       0x24 d:/dev/vhdl/program/nios2eds/bin/gnu/h-x86_64-mingw32/bin/../lib/gcc/nios2-elf/5.3.0/mhw-mulx\libgcc.a(_umoddi3.o)
 .comment       0x0000000000000023       0x24 d:/dev/vhdl/program/nios2eds/bin/gnu/h-x86_64-mingw32/bin/../lib/gcc/nios2-elf/5.3.0/mhw-mulx\libgcc.a(lib2-divmod.o)
 .comment       0x0000000000000023       0x24 d:/dev/vhdl/program/nios2eds/bin/gnu/h-x86_64-mingw32/bin/../lib/gcc/nios2-elf/5.3.0/mhw-mulx\libgcc.a(adddf3.o)
 .comment       0x0000000000000023       0x24 d:/dev/vhdl/program/nios2eds/bin/gnu/h-x86_64-mingw32/bin/../lib/gcc/nios2-elf/5.3.0/mhw-mulx\libgcc.a(divdf3.o)
 .comment       0x0000000000000023       0x24 d:/dev/vhdl/program/nios2eds/bin/gnu/h-x86_64-mingw32/bin/../lib/gcc/nios2-elf/5.3.0/mhw-mulx\libgcc.a(eqdf2.o)
 .comment       0x0000000000000023       0x24 d:/dev/vhdl/program/nios2eds/bin/gnu/h-x86_64-mingw32/bin/../lib/gcc/nios2-elf/5.3.0/mhw-mulx\libgcc.a(gedf2.o)
 .comment       0x0000000000000023       0x24 d:/dev/vhdl/program/nios2eds/bin/gnu/h-x86_64-mingw32/bin/../lib/gcc/nios2-elf/5.3.0/mhw-mulx\libgcc.a(ledf2.o)
 .comment       0x0000000000000023       0x24 d:/dev/vhdl/program/nios2eds/bin/gnu/h-x86_64-mingw32/bin/../lib/gcc/nios2-elf/5.3.0/mhw-mulx\libgcc.a(muldf3.o)
 .comment       0x0000000000000023       0x24 d:/dev/vhdl/program/nios2eds/bin/gnu/h-x86_64-mingw32/bin/../lib/gcc/nios2-elf/5.3.0/mhw-mulx\libgcc.a(subdf3.o)
 .comment       0x0000000000000023       0x24 d:/dev/vhdl/program/nios2eds/bin/gnu/h-x86_64-mingw32/bin/../lib/gcc/nios2-elf/5.3.0/mhw-mulx\libgcc.a(fixdfsi.o)
 .comment       0x0000000000000023       0x24 d:/dev/vhdl/program/nios2eds/bin/gnu/h-x86_64-mingw32/bin/../lib/gcc/nios2-elf/5.3.0/mhw-mulx\libgcc.a(floatsidf.o)
 .comment       0x0000000000000023       0x24 d:/dev/vhdl/program/nios2eds/bin/gnu/h-x86_64-mingw32/bin/../lib/gcc/nios2-elf/5.3.0/mhw-mulx\libgcc.a(floatunsidf.o)
 .comment       0x0000000000000023       0x24 d:/dev/vhdl/program/nios2eds/bin/gnu/h-x86_64-mingw32/bin/../lib/gcc/nios2-elf/5.3.0/mhw-mulx\libgcc.a(_clz.o)
 .comment       0x0000000000000023       0x24 d:/dev/vhdl/program/nios2eds/bin/gnu/h-x86_64-mingw32/bin/../lib/gcc/nios2-elf/5.3.0/mhw-mulx\libgcc.a(_clzsi2.o)
 .comment       0x0000000000000023       0x24 D:/Dev/vhdl/dev/testNIOS/audioVisualisator_bsp/\libucosii_bsp.a(alt_close.o)
 .comment       0x0000000000000023       0x24 D:/Dev/vhdl/dev/testNIOS/audioVisualisator_bsp/\libucosii_bsp.a(alt_dev.o)
 .comment       0x0000000000000023       0x24 D:/Dev/vhdl/dev/testNIOS/audioVisualisator_bsp/\libucosii_bsp.a(alt_errno.o)
 .comment       0x0000000000000023       0x24 D:/Dev/vhdl/dev/testNIOS/audioVisualisator_bsp/\libucosii_bsp.a(alt_fstat.o)
 .comment       0x0000000000000023       0x24 D:/Dev/vhdl/dev/testNIOS/audioVisualisator_bsp/\libucosii_bsp.a(alt_isatty.o)
 .comment       0x0000000000000023       0x24 D:/Dev/vhdl/dev/testNIOS/audioVisualisator_bsp/\libucosii_bsp.a(alt_load.o)
 .comment       0x0000000000000023       0x24 D:/Dev/vhdl/dev/testNIOS/audioVisualisator_bsp/\libucosii_bsp.a(alt_lseek.o)
 .comment       0x0000000000000023       0x24 D:/Dev/vhdl/dev/testNIOS/audioVisualisator_bsp/\libucosii_bsp.a(alt_main.o)
 .comment       0x0000000000000023       0x24 D:/Dev/vhdl/dev/testNIOS/audioVisualisator_bsp/\libucosii_bsp.a(alt_read.o)
 .comment       0x0000000000000023       0x24 D:/Dev/vhdl/dev/testNIOS/audioVisualisator_bsp/\libucosii_bsp.a(alt_release_fd.o)
 .comment       0x0000000000000023       0x24 D:/Dev/vhdl/dev/testNIOS/audioVisualisator_bsp/\libucosii_bsp.a(alt_sbrk.o)
 .comment       0x0000000000000023       0x24 D:/Dev/vhdl/dev/testNIOS/audioVisualisator_bsp/\libucosii_bsp.a(alt_write.o)
 .comment       0x0000000000000023       0x24 D:/Dev/vhdl/dev/testNIOS/audioVisualisator_bsp/\libucosii_bsp.a(alt_env_lock.o)
 .comment       0x0000000000000023       0x24 D:/Dev/vhdl/dev/testNIOS/audioVisualisator_bsp/\libucosii_bsp.a(alt_malloc_lock.o)
 .comment       0x0000000000000023       0x24 D:/Dev/vhdl/dev/testNIOS/audioVisualisator_bsp/\libucosii_bsp.a(os_core.o)
 .comment       0x0000000000000023       0x24 D:/Dev/vhdl/dev/testNIOS/audioVisualisator_bsp/\libucosii_bsp.a(os_dbg.o)
 .comment       0x0000000000000023       0x24 D:/Dev/vhdl/dev/testNIOS/audioVisualisator_bsp/\libucosii_bsp.a(os_flag.o)
 .comment       0x0000000000000023       0x24 D:/Dev/vhdl/dev/testNIOS/audioVisualisator_bsp/\libucosii_bsp.a(os_mem.o)
 .comment       0x0000000000000023       0x24 D:/Dev/vhdl/dev/testNIOS/audioVisualisator_bsp/\libucosii_bsp.a(os_q.o)
 .comment       0x0000000000000023       0x24 D:/Dev/vhdl/dev/testNIOS/audioVisualisator_bsp/\libucosii_bsp.a(os_sem.o)
 .comment       0x0000000000000023       0x24 D:/Dev/vhdl/dev/testNIOS/audioVisualisator_bsp/\libucosii_bsp.a(os_task.o)
 .comment       0x0000000000000023       0x24 D:/Dev/vhdl/dev/testNIOS/audioVisualisator_bsp/\libucosii_bsp.a(os_time.o)
 .comment       0x0000000000000023       0x24 D:/Dev/vhdl/dev/testNIOS/audioVisualisator_bsp/\libucosii_bsp.a(alt_sys_init.o)
 .comment       0x0000000000000023       0x24 D:/Dev/vhdl/dev/testNIOS/audioVisualisator_bsp/\libucosii_bsp.a(altera_avalon_jtag_uart_fd.o)
 .comment       0x0000000000000023       0x24 D:/Dev/vhdl/dev/testNIOS/audioVisualisator_bsp/\libucosii_bsp.a(altera_avalon_jtag_uart_init.o)
 .comment       0x0000000000000023       0x24 D:/Dev/vhdl/dev/testNIOS/audioVisualisator_bsp/\libucosii_bsp.a(altera_avalon_jtag_uart_ioctl.o)
 .comment       0x0000000000000023       0x24 D:/Dev/vhdl/dev/testNIOS/audioVisualisator_bsp/\libucosii_bsp.a(altera_avalon_jtag_uart_read.o)
 .comment       0x0000000000000023       0x24 D:/Dev/vhdl/dev/testNIOS/audioVisualisator_bsp/\libucosii_bsp.a(altera_avalon_jtag_uart_write.o)
 .comment       0x0000000000000023       0x24 D:/Dev/vhdl/dev/testNIOS/audioVisualisator_bsp/\libucosii_bsp.a(altera_avalon_timer_sc.o)
 .comment       0x0000000000000023       0x24 D:/Dev/vhdl/dev/testNIOS/audioVisualisator_bsp/\libucosii_bsp.a(altera_up_avalon_audio.o)
 .comment       0x0000000000000023       0x24 D:/Dev/vhdl/dev/testNIOS/audioVisualisator_bsp/\libucosii_bsp.a(altera_up_avalon_character_lcd.o)
 .comment       0x0000000000000023       0x24 D:/Dev/vhdl/dev/testNIOS/audioVisualisator_bsp/\libucosii_bsp.a(altera_up_avalon_irda.o)
 .comment       0x0000000000000023       0x24 D:/Dev/vhdl/dev/testNIOS/audioVisualisator_bsp/\libucosii_bsp.a(altera_up_avalon_ps2.o)
 .comment       0x0000000000000023       0x24 D:/Dev/vhdl/dev/testNIOS/audioVisualisator_bsp/\libucosii_bsp.a(altera_up_avalon_rs232.o)
 .comment       0x0000000000000023       0x24 D:/Dev/vhdl/dev/testNIOS/audioVisualisator_bsp/\libucosii_bsp.a(alt_alarm_start.o)
 .comment       0x0000000000000023       0x24 D:/Dev/vhdl/dev/testNIOS/audioVisualisator_bsp/\libucosii_bsp.a(alt_dcache_flush_all.o)
 .comment       0x0000000000000023       0x24 D:/Dev/vhdl/dev/testNIOS/audioVisualisator_bsp/\libucosii_bsp.a(alt_dev_llist_insert.o)
 .comment       0x0000000000000023       0x24 D:/Dev/vhdl/dev/testNIOS/audioVisualisator_bsp/\libucosii_bsp.a(alt_do_ctors.o)
 .comment       0x0000000000000023       0x24 D:/Dev/vhdl/dev/testNIOS/audioVisualisator_bsp/\libucosii_bsp.a(alt_do_dtors.o)
 .comment       0x0000000000000023       0x24 D:/Dev/vhdl/dev/testNIOS/audioVisualisator_bsp/\libucosii_bsp.a(alt_find_dev.o)
 .comment       0x0000000000000023       0x24 D:/Dev/vhdl/dev/testNIOS/audioVisualisator_bsp/\libucosii_bsp.a(alt_icache_flush_all.o)
 .comment       0x0000000000000023       0x24 D:/Dev/vhdl/dev/testNIOS/audioVisualisator_bsp/\libucosii_bsp.a(alt_io_redirect.o)
 .comment       0x0000000000000023       0x24 D:/Dev/vhdl/dev/testNIOS/audioVisualisator_bsp/\libucosii_bsp.a(alt_irq_register.o)
 .comment       0x0000000000000023       0x24 D:/Dev/vhdl/dev/testNIOS/audioVisualisator_bsp/\libucosii_bsp.a(alt_irq_vars.o)
 .comment       0x0000000000000023       0x24 D:/Dev/vhdl/dev/testNIOS/audioVisualisator_bsp/\libucosii_bsp.a(alt_open.o)
 .comment       0x0000000000000023       0x24 D:/Dev/vhdl/dev/testNIOS/audioVisualisator_bsp/\libucosii_bsp.a(alt_tick.o)
 .comment       0x0000000000000023       0x24 D:/Dev/vhdl/dev/testNIOS/audioVisualisator_bsp/\libucosii_bsp.a(altera_nios2_gen2_irq.o)
 .comment       0x0000000000000023       0x24 D:/Dev/vhdl/dev/testNIOS/audioVisualisator_bsp/\libucosii_bsp.a(os_cpu_c.o)
 .comment       0x0000000000000023       0x24 D:/Dev/vhdl/dev/testNIOS/audioVisualisator_bsp/\libucosii_bsp.a(alt_find_file.o)
 .comment       0x0000000000000023       0x24 D:/Dev/vhdl/dev/testNIOS/audioVisualisator_bsp/\libucosii_bsp.a(alt_get_fd.o)
 .comment       0x0000000000000023       0x24 D:/Dev/vhdl/dev/testNIOS/audioVisualisator_bsp/\libucosii_bsp.a(alt_icache_flush.o)
 .comment       0x0000000000000023       0x24 D:/Dev/vhdl/dev/testNIOS/audioVisualisator_bsp/\libucosii_bsp.a(alt_irq_handler.o)
 .comment       0x0000000000000023       0x24 D:/Dev/vhdl/dev/testNIOS/audioVisualisator_bsp/\libucosii_bsp.a(alt_instruction_exception_entry.o)
 .comment       0x0000000000000023       0x24 d:/dev/vhdl/program/nios2eds/bin/gnu/h-x86_64-mingw32/bin/../lib/gcc/nios2-elf/5.3.0/../../../../../H-x86_64-mingw32/nios2-elf/lib/mhw-mulx\libc.a(lib_a-atexit.o)
 .comment       0x0000000000000023       0x24 d:/dev/vhdl/program/nios2eds/bin/gnu/h-x86_64-mingw32/bin/../lib/gcc/nios2-elf/5.3.0/../../../../../H-x86_64-mingw32/nios2-elf/lib/mhw-mulx\libc.a(lib_a-exit.o)
 .comment       0x0000000000000023       0x24 d:/dev/vhdl/program/nios2eds/bin/gnu/h-x86_64-mingw32/bin/../lib/gcc/nios2-elf/5.3.0/../../../../../H-x86_64-mingw32/nios2-elf/lib/mhw-mulx\libc.a(lib_a-memcmp.o)
 .comment       0x0000000000000023       0x24 d:/dev/vhdl/program/nios2eds/bin/gnu/h-x86_64-mingw32/bin/../lib/gcc/nios2-elf/5.3.0/../../../../../H-x86_64-mingw32/nios2-elf/lib/mhw-mulx\libc.a(lib_a-__atexit.o)
 .comment       0x0000000000000023       0x24 d:/dev/vhdl/program/nios2eds/bin/gnu/h-x86_64-mingw32/bin/../lib/gcc/nios2-elf/5.3.0/../../../../../H-x86_64-mingw32/nios2-elf/lib/mhw-mulx\libc.a(lib_a-__call_atexit.o)
 .comment       0x0000000000000023       0x24 D:/Dev/vhdl/dev/testNIOS/audioVisualisator_bsp/\libucosii_bsp.a(alt_exit.o)

.debug
 *(.debug)

.line
 *(.line)

.debug_srcinfo
 *(.debug_srcinfo)

.debug_sfnames
 *(.debug_sfnames)

.debug_aranges  0x0000000000000000     0x1100
 *(.debug_aranges)
 .debug_aranges
                0x0000000000000000       0x28 D:/Dev/vhdl/dev/testNIOS/audioVisualisator_bsp//obj/HAL/src/crt0.o
 .debug_aranges
                0x0000000000000028       0x20 obj/default/hello_ucosii.o
 .debug_aranges
                0x0000000000000048       0x20 obj/default/src/Audio.o
 .debug_aranges
                0x0000000000000068       0x20 obj/default/src/Display.o
 .debug_aranges
                0x0000000000000088       0x28 d:/dev/vhdl/program/nios2eds/bin/gnu/h-x86_64-mingw32/bin/../lib/gcc/nios2-elf/5.3.0/../../../../../H-x86_64-mingw32/nios2-elf/lib/mhw-mulx\libc.a(lib_a-malloc.o)
 .debug_aranges
                0x00000000000000b0       0x20 d:/dev/vhdl/program/nios2eds/bin/gnu/h-x86_64-mingw32/bin/../lib/gcc/nios2-elf/5.3.0/../../../../../H-x86_64-mingw32/nios2-elf/lib/mhw-mulx\libc.a(lib_a-mallocr.o)
 .debug_aranges
                0x00000000000000d0       0x28 d:/dev/vhdl/program/nios2eds/bin/gnu/h-x86_64-mingw32/bin/../lib/gcc/nios2-elf/5.3.0/../../../../../H-x86_64-mingw32/nios2-elf/lib/mhw-mulx\libc.a(lib_a-printf.o)
 .debug_aranges
                0x00000000000000f8       0x28 d:/dev/vhdl/program/nios2eds/bin/gnu/h-x86_64-mingw32/bin/../lib/gcc/nios2-elf/5.3.0/../../../../../H-x86_64-mingw32/nios2-elf/lib/mhw-mulx\libc.a(lib_a-rand.o)
 .debug_aranges
                0x0000000000000120       0x20 d:/dev/vhdl/program/nios2eds/bin/gnu/h-x86_64-mingw32/bin/../lib/gcc/nios2-elf/5.3.0/../../../../../H-x86_64-mingw32/nios2-elf/lib/mhw-mulx\libc.a(lib_a-sbrkr.o)
 .debug_aranges
                0x0000000000000140       0x30 d:/dev/vhdl/program/nios2eds/bin/gnu/h-x86_64-mingw32/bin/../lib/gcc/nios2-elf/5.3.0/../../../../../H-x86_64-mingw32/nios2-elf/lib/mhw-mulx\libc.a(lib_a-vfprintf.o)
 .debug_aranges
                0x0000000000000170       0x20 d:/dev/vhdl/program/nios2eds/bin/gnu/h-x86_64-mingw32/bin/../lib/gcc/nios2-elf/5.3.0/../../../../../H-x86_64-mingw32/nios2-elf/lib/mhw-mulx\libc.a(lib_a-wsetup.o)
 .debug_aranges
                0x0000000000000190       0x28 d:/dev/vhdl/program/nios2eds/bin/gnu/h-x86_64-mingw32/bin/../lib/gcc/nios2-elf/5.3.0/../../../../../H-x86_64-mingw32/nios2-elf/lib/mhw-mulx\libc.a(lib_a-dtoa.o)
 .debug_aranges
                0x00000000000001b8       0x30 d:/dev/vhdl/program/nios2eds/bin/gnu/h-x86_64-mingw32/bin/../lib/gcc/nios2-elf/5.3.0/../../../../../H-x86_64-mingw32/nios2-elf/lib/mhw-mulx\libc.a(lib_a-fflush.o)
 .debug_aranges
                0x00000000000001e8       0x68 d:/dev/vhdl/program/nios2eds/bin/gnu/h-x86_64-mingw32/bin/../lib/gcc/nios2-elf/5.3.0/../../../../../H-x86_64-mingw32/nios2-elf/lib/mhw-mulx\libc.a(lib_a-findfp.o)
 .debug_aranges
                0x0000000000000250       0x28 d:/dev/vhdl/program/nios2eds/bin/gnu/h-x86_64-mingw32/bin/../lib/gcc/nios2-elf/5.3.0/../../../../../H-x86_64-mingw32/nios2-elf/lib/mhw-mulx\libc.a(lib_a-freer.o)
 .debug_aranges
                0x0000000000000278       0x28 d:/dev/vhdl/program/nios2eds/bin/gnu/h-x86_64-mingw32/bin/../lib/gcc/nios2-elf/5.3.0/../../../../../H-x86_64-mingw32/nios2-elf/lib/mhw-mulx\libc.a(lib_a-fwalk.o)
 .debug_aranges
                0x00000000000002a0       0x18 d:/dev/vhdl/program/nios2eds/bin/gnu/h-x86_64-mingw32/bin/../lib/gcc/nios2-elf/5.3.0/../../../../../H-x86_64-mingw32/nios2-elf/lib/mhw-mulx\libc.a(lib_a-impure.o)
 .debug_aranges
                0x00000000000002b8       0x18 d:/dev/vhdl/program/nios2eds/bin/gnu/h-x86_64-mingw32/bin/../lib/gcc/nios2-elf/5.3.0/../../../../../H-x86_64-mingw32/nios2-elf/lib/mhw-mulx\libc.a(lib_a-int_errno.o)
 .debug_aranges
                0x00000000000002d0       0x58 d:/dev/vhdl/program/nios2eds/bin/gnu/h-x86_64-mingw32/bin/../lib/gcc/nios2-elf/5.3.0/../../../../../H-x86_64-mingw32/nios2-elf/lib/mhw-mulx\libc.a(lib_a-locale.o)
 .debug_aranges
                0x0000000000000328       0x20 d:/dev/vhdl/program/nios2eds/bin/gnu/h-x86_64-mingw32/bin/../lib/gcc/nios2-elf/5.3.0/../../../../../H-x86_64-mingw32/nios2-elf/lib/mhw-mulx\libc.a(lib_a-makebuf.o)
 .debug_aranges
                0x0000000000000348       0x20 d:/dev/vhdl/program/nios2eds/bin/gnu/h-x86_64-mingw32/bin/../lib/gcc/nios2-elf/5.3.0/../../../../../H-x86_64-mingw32/nios2-elf/lib/mhw-mulx\libc.a(lib_a-memchr.o)
 .debug_aranges
                0x0000000000000368       0x20 d:/dev/vhdl/program/nios2eds/bin/gnu/h-x86_64-mingw32/bin/../lib/gcc/nios2-elf/5.3.0/../../../../../H-x86_64-mingw32/nios2-elf/lib/mhw-mulx\libc.a(lib_a-memcpy.o)
 .debug_aranges
                0x0000000000000388       0x20 d:/dev/vhdl/program/nios2eds/bin/gnu/h-x86_64-mingw32/bin/../lib/gcc/nios2-elf/5.3.0/../../../../../H-x86_64-mingw32/nios2-elf/lib/mhw-mulx\libc.a(lib_a-memset.o)
 .debug_aranges
                0x00000000000003a8       0xb0 d:/dev/vhdl/program/nios2eds/bin/gnu/h-x86_64-mingw32/bin/../lib/gcc/nios2-elf/5.3.0/../../../../../H-x86_64-mingw32/nios2-elf/lib/mhw-mulx\libc.a(lib_a-mprec.o)
 .debug_aranges
                0x0000000000000458       0x20 d:/dev/vhdl/program/nios2eds/bin/gnu/h-x86_64-mingw32/bin/../lib/gcc/nios2-elf/5.3.0/../../../../../H-x86_64-mingw32/nios2-elf/lib/mhw-mulx\libc.a(lib_a-s_fpclassify.o)
 .debug_aranges
                0x0000000000000478       0x40 d:/dev/vhdl/program/nios2eds/bin/gnu/h-x86_64-mingw32/bin/../lib/gcc/nios2-elf/5.3.0/../../../../../H-x86_64-mingw32/nios2-elf/lib/mhw-mulx\libc.a(lib_a-stdio.o)
 .debug_aranges
                0x00000000000004b8       0x20 d:/dev/vhdl/program/nios2eds/bin/gnu/h-x86_64-mingw32/bin/../lib/gcc/nios2-elf/5.3.0/../../../../../H-x86_64-mingw32/nios2-elf/lib/mhw-mulx\libc.a(lib_a-strcmp.o)
 .debug_aranges
                0x00000000000004d8       0x20 d:/dev/vhdl/program/nios2eds/bin/gnu/h-x86_64-mingw32/bin/../lib/gcc/nios2-elf/5.3.0/../../../../../H-x86_64-mingw32/nios2-elf/lib/mhw-mulx\libc.a(lib_a-strlen.o)
 .debug_aranges
                0x00000000000004f8       0x40 d:/dev/vhdl/program/nios2eds/bin/gnu/h-x86_64-mingw32/bin/../lib/gcc/nios2-elf/5.3.0/../../../../../H-x86_64-mingw32/nios2-elf/lib/mhw-mulx\libc.a(lib_a-vfiprintf.o)
 .debug_aranges
                0x0000000000000538       0x20 d:/dev/vhdl/program/nios2eds/bin/gnu/h-x86_64-mingw32/bin/../lib/gcc/nios2-elf/5.3.0/../../../../../H-x86_64-mingw32/nios2-elf/lib/mhw-mulx\libc.a(lib_a-writer.o)
 .debug_aranges
                0x0000000000000558       0x20 d:/dev/vhdl/program/nios2eds/bin/gnu/h-x86_64-mingw32/bin/../lib/gcc/nios2-elf/5.3.0/../../../../../H-x86_64-mingw32/nios2-elf/lib/mhw-mulx\libc.a(closer.o)
 .debug_aranges
                0x0000000000000578       0x20 d:/dev/vhdl/program/nios2eds/bin/gnu/h-x86_64-mingw32/bin/../lib/gcc/nios2-elf/5.3.0/../../../../../H-x86_64-mingw32/nios2-elf/lib/mhw-mulx\libc.a(lib_a-callocr.o)
 .debug_aranges
                0x0000000000000598       0x28 d:/dev/vhdl/program/nios2eds/bin/gnu/h-x86_64-mingw32/bin/../lib/gcc/nios2-elf/5.3.0/../../../../../H-x86_64-mingw32/nios2-elf/lib/mhw-mulx\libc.a(lib_a-fclose.o)
 .debug_aranges
                0x00000000000005c0       0x30 d:/dev/vhdl/program/nios2eds/bin/gnu/h-x86_64-mingw32/bin/../lib/gcc/nios2-elf/5.3.0/../../../../../H-x86_64-mingw32/nios2-elf/lib/mhw-mulx\libc.a(lib_a-fputwc.o)
 .debug_aranges
                0x00000000000005f0       0x20 d:/dev/vhdl/program/nios2eds/bin/gnu/h-x86_64-mingw32/bin/../lib/gcc/nios2-elf/5.3.0/../../../../../H-x86_64-mingw32/nios2-elf/lib/mhw-mulx\libc.a(lib_a-fstatr.o)
 .debug_aranges
                0x0000000000000610       0x20 d:/dev/vhdl/program/nios2eds/bin/gnu/h-x86_64-mingw32/bin/../lib/gcc/nios2-elf/5.3.0/../../../../../H-x86_64-mingw32/nios2-elf/lib/mhw-mulx\libc.a(lib_a-fvwrite.o)
 .debug_aranges
                0x0000000000000630       0x20 d:/dev/vhdl/program/nios2eds/bin/gnu/h-x86_64-mingw32/bin/../lib/gcc/nios2-elf/5.3.0/../../../../../H-x86_64-mingw32/nios2-elf/lib/mhw-mulx\libc.a(lib_a-isattyr.o)
 .debug_aranges
                0x0000000000000650       0x20 d:/dev/vhdl/program/nios2eds/bin/gnu/h-x86_64-mingw32/bin/../lib/gcc/nios2-elf/5.3.0/../../../../../H-x86_64-mingw32/nios2-elf/lib/mhw-mulx\libc.a(lib_a-lseekr.o)
 .debug_aranges
                0x0000000000000670       0x20 d:/dev/vhdl/program/nios2eds/bin/gnu/h-x86_64-mingw32/bin/../lib/gcc/nios2-elf/5.3.0/../../../../../H-x86_64-mingw32/nios2-elf/lib/mhw-mulx\libc.a(lib_a-memmove.o)
 .debug_aranges
                0x0000000000000690       0x20 d:/dev/vhdl/program/nios2eds/bin/gnu/h-x86_64-mingw32/bin/../lib/gcc/nios2-elf/5.3.0/../../../../../H-x86_64-mingw32/nios2-elf/lib/mhw-mulx\libc.a(lib_a-readr.o)
 .debug_aranges
                0x00000000000006b0       0x20 d:/dev/vhdl/program/nios2eds/bin/gnu/h-x86_64-mingw32/bin/../lib/gcc/nios2-elf/5.3.0/../../../../../H-x86_64-mingw32/nios2-elf/lib/mhw-mulx\libc.a(lib_a-reallocr.o)
 .debug_aranges
                0x00000000000006d0       0x28 d:/dev/vhdl/program/nios2eds/bin/gnu/h-x86_64-mingw32/bin/../lib/gcc/nios2-elf/5.3.0/../../../../../H-x86_64-mingw32/nios2-elf/lib/mhw-mulx\libc.a(lib_a-wbuf.o)
 .debug_aranges
                0x00000000000006f8       0x28 d:/dev/vhdl/program/nios2eds/bin/gnu/h-x86_64-mingw32/bin/../lib/gcc/nios2-elf/5.3.0/../../../../../H-x86_64-mingw32/nios2-elf/lib/mhw-mulx\libc.a(lib_a-wcrtomb.o)
 .debug_aranges
                0x0000000000000720       0x28 d:/dev/vhdl/program/nios2eds/bin/gnu/h-x86_64-mingw32/bin/../lib/gcc/nios2-elf/5.3.0/../../../../../H-x86_64-mingw32/nios2-elf/lib/mhw-mulx\libc.a(lib_a-wctomb_r.o)
 .debug_aranges
                0x0000000000000748       0x20 d:/dev/vhdl/program/nios2eds/bin/gnu/h-x86_64-mingw32/bin/../lib/gcc/nios2-elf/5.3.0/mhw-mulx\libgcc.a(_udivdi3.o)
 .debug_aranges
                0x0000000000000768       0x20 d:/dev/vhdl/program/nios2eds/bin/gnu/h-x86_64-mingw32/bin/../lib/gcc/nios2-elf/5.3.0/mhw-mulx\libgcc.a(_umoddi3.o)
 .debug_aranges
                0x0000000000000788       0x20 d:/dev/vhdl/program/nios2eds/bin/gnu/h-x86_64-mingw32/bin/../lib/gcc/nios2-elf/5.3.0/mhw-mulx\libgcc.a(lib2-divmod.o)
 .debug_aranges
                0x00000000000007a8       0x20 d:/dev/vhdl/program/nios2eds/bin/gnu/h-x86_64-mingw32/bin/../lib/gcc/nios2-elf/5.3.0/mhw-mulx\libgcc.a(adddf3.o)
 .debug_aranges
                0x00000000000007c8       0x20 d:/dev/vhdl/program/nios2eds/bin/gnu/h-x86_64-mingw32/bin/../lib/gcc/nios2-elf/5.3.0/mhw-mulx\libgcc.a(divdf3.o)
 .debug_aranges
                0x00000000000007e8       0x20 d:/dev/vhdl/program/nios2eds/bin/gnu/h-x86_64-mingw32/bin/../lib/gcc/nios2-elf/5.3.0/mhw-mulx\libgcc.a(eqdf2.o)
 .debug_aranges
                0x0000000000000808       0x20 d:/dev/vhdl/program/nios2eds/bin/gnu/h-x86_64-mingw32/bin/../lib/gcc/nios2-elf/5.3.0/mhw-mulx\libgcc.a(gedf2.o)
 .debug_aranges
                0x0000000000000828       0x20 d:/dev/vhdl/program/nios2eds/bin/gnu/h-x86_64-mingw32/bin/../lib/gcc/nios2-elf/5.3.0/mhw-mulx\libgcc.a(ledf2.o)
 .debug_aranges
                0x0000000000000848       0x20 d:/dev/vhdl/program/nios2eds/bin/gnu/h-x86_64-mingw32/bin/../lib/gcc/nios2-elf/5.3.0/mhw-mulx\libgcc.a(muldf3.o)
 .debug_aranges
                0x0000000000000868       0x20 d:/dev/vhdl/program/nios2eds/bin/gnu/h-x86_64-mingw32/bin/../lib/gcc/nios2-elf/5.3.0/mhw-mulx\libgcc.a(subdf3.o)
 .debug_aranges
                0x0000000000000888       0x20 d:/dev/vhdl/program/nios2eds/bin/gnu/h-x86_64-mingw32/bin/../lib/gcc/nios2-elf/5.3.0/mhw-mulx\libgcc.a(fixdfsi.o)
 .debug_aranges
                0x00000000000008a8       0x20 d:/dev/vhdl/program/nios2eds/bin/gnu/h-x86_64-mingw32/bin/../lib/gcc/nios2-elf/5.3.0/mhw-mulx\libgcc.a(floatsidf.o)
 .debug_aranges
                0x00000000000008c8       0x20 d:/dev/vhdl/program/nios2eds/bin/gnu/h-x86_64-mingw32/bin/../lib/gcc/nios2-elf/5.3.0/mhw-mulx\libgcc.a(floatunsidf.o)
 .debug_aranges
                0x00000000000008e8       0x18 d:/dev/vhdl/program/nios2eds/bin/gnu/h-x86_64-mingw32/bin/../lib/gcc/nios2-elf/5.3.0/mhw-mulx\libgcc.a(_clz.o)
 .debug_aranges
                0x0000000000000900       0x20 d:/dev/vhdl/program/nios2eds/bin/gnu/h-x86_64-mingw32/bin/../lib/gcc/nios2-elf/5.3.0/mhw-mulx\libgcc.a(_clzsi2.o)
 .debug_aranges
                0x0000000000000920       0x20 D:/Dev/vhdl/dev/testNIOS/audioVisualisator_bsp/\libucosii_bsp.a(alt_close.o)
 .debug_aranges
                0x0000000000000940       0x20 D:/Dev/vhdl/dev/testNIOS/audioVisualisator_bsp/\libucosii_bsp.a(alt_dev.o)
 .debug_aranges
                0x0000000000000960       0x18 D:/Dev/vhdl/dev/testNIOS/audioVisualisator_bsp/\libucosii_bsp.a(alt_errno.o)
 .debug_aranges
                0x0000000000000978       0x20 D:/Dev/vhdl/dev/testNIOS/audioVisualisator_bsp/\libucosii_bsp.a(alt_fstat.o)
 .debug_aranges
                0x0000000000000998       0x20 D:/Dev/vhdl/dev/testNIOS/audioVisualisator_bsp/\libucosii_bsp.a(alt_isatty.o)
 .debug_aranges
                0x00000000000009b8       0x20 D:/Dev/vhdl/dev/testNIOS/audioVisualisator_bsp/\libucosii_bsp.a(alt_load.o)
 .debug_aranges
                0x00000000000009d8       0x20 D:/Dev/vhdl/dev/testNIOS/audioVisualisator_bsp/\libucosii_bsp.a(alt_lseek.o)
 .debug_aranges
                0x00000000000009f8       0x20 D:/Dev/vhdl/dev/testNIOS/audioVisualisator_bsp/\libucosii_bsp.a(alt_main.o)
 .debug_aranges
                0x0000000000000a18       0x20 D:/Dev/vhdl/dev/testNIOS/audioVisualisator_bsp/\libucosii_bsp.a(alt_read.o)
 .debug_aranges
                0x0000000000000a38       0x20 D:/Dev/vhdl/dev/testNIOS/audioVisualisator_bsp/\libucosii_bsp.a(alt_release_fd.o)
 .debug_aranges
                0x0000000000000a58       0x20 D:/Dev/vhdl/dev/testNIOS/audioVisualisator_bsp/\libucosii_bsp.a(alt_sbrk.o)
 .debug_aranges
                0x0000000000000a78       0x20 D:/Dev/vhdl/dev/testNIOS/audioVisualisator_bsp/\libucosii_bsp.a(alt_write.o)
 .debug_aranges
                0x0000000000000a98       0x20 D:/Dev/vhdl/dev/testNIOS/audioVisualisator_bsp/\libucosii_bsp.a(alt_env_lock.o)
 .debug_aranges
                0x0000000000000ab8       0x20 D:/Dev/vhdl/dev/testNIOS/audioVisualisator_bsp/\libucosii_bsp.a(alt_malloc_lock.o)
 .debug_aranges
                0x0000000000000ad8       0x20 D:/Dev/vhdl/dev/testNIOS/audioVisualisator_bsp/\libucosii_bsp.a(os_core.o)
 .debug_aranges
                0x0000000000000af8       0x20 D:/Dev/vhdl/dev/testNIOS/audioVisualisator_bsp/\libucosii_bsp.a(os_dbg.o)
 .debug_aranges
                0x0000000000000b18       0x20 D:/Dev/vhdl/dev/testNIOS/audioVisualisator_bsp/\libucosii_bsp.a(os_flag.o)
 .debug_aranges
                0x0000000000000b38       0x20 D:/Dev/vhdl/dev/testNIOS/audioVisualisator_bsp/\libucosii_bsp.a(os_mem.o)
 .debug_aranges
                0x0000000000000b58       0x20 D:/Dev/vhdl/dev/testNIOS/audioVisualisator_bsp/\libucosii_bsp.a(os_q.o)
 .debug_aranges
                0x0000000000000b78       0x20 D:/Dev/vhdl/dev/testNIOS/audioVisualisator_bsp/\libucosii_bsp.a(os_sem.o)
 .debug_aranges
                0x0000000000000b98       0x20 D:/Dev/vhdl/dev/testNIOS/audioVisualisator_bsp/\libucosii_bsp.a(os_task.o)
 .debug_aranges
                0x0000000000000bb8       0x20 D:/Dev/vhdl/dev/testNIOS/audioVisualisator_bsp/\libucosii_bsp.a(os_time.o)
 .debug_aranges
                0x0000000000000bd8       0x20 D:/Dev/vhdl/dev/testNIOS/audioVisualisator_bsp/\libucosii_bsp.a(alt_sys_init.o)
 .debug_aranges
                0x0000000000000bf8       0x20 D:/Dev/vhdl/dev/testNIOS/audioVisualisator_bsp/\libucosii_bsp.a(altera_avalon_jtag_uart_fd.o)
 .debug_aranges
                0x0000000000000c18       0x20 D:/Dev/vhdl/dev/testNIOS/audioVisualisator_bsp/\libucosii_bsp.a(altera_avalon_jtag_uart_init.o)
 .debug_aranges
                0x0000000000000c38       0x20 D:/Dev/vhdl/dev/testNIOS/audioVisualisator_bsp/\libucosii_bsp.a(altera_avalon_jtag_uart_ioctl.o)
 .debug_aranges
                0x0000000000000c58       0x20 D:/Dev/vhdl/dev/testNIOS/audioVisualisator_bsp/\libucosii_bsp.a(altera_avalon_jtag_uart_read.o)
 .debug_aranges
                0x0000000000000c78       0x20 D:/Dev/vhdl/dev/testNIOS/audioVisualisator_bsp/\libucosii_bsp.a(altera_avalon_jtag_uart_write.o)
 .debug_aranges
                0x0000000000000c98       0x20 D:/Dev/vhdl/dev/testNIOS/audioVisualisator_bsp/\libucosii_bsp.a(altera_avalon_timer_sc.o)
 .debug_aranges
                0x0000000000000cb8       0x20 D:/Dev/vhdl/dev/testNIOS/audioVisualisator_bsp/\libucosii_bsp.a(altera_up_avalon_audio.o)
 .debug_aranges
                0x0000000000000cd8       0x20 D:/Dev/vhdl/dev/testNIOS/audioVisualisator_bsp/\libucosii_bsp.a(altera_up_avalon_character_lcd.o)
 .debug_aranges
                0x0000000000000cf8       0x20 D:/Dev/vhdl/dev/testNIOS/audioVisualisator_bsp/\libucosii_bsp.a(altera_up_avalon_irda.o)
 .debug_aranges
                0x0000000000000d18       0x20 D:/Dev/vhdl/dev/testNIOS/audioVisualisator_bsp/\libucosii_bsp.a(altera_up_avalon_ps2.o)
 .debug_aranges
                0x0000000000000d38       0x20 D:/Dev/vhdl/dev/testNIOS/audioVisualisator_bsp/\libucosii_bsp.a(altera_up_avalon_rs232.o)
 .debug_aranges
                0x0000000000000d58       0x20 D:/Dev/vhdl/dev/testNIOS/audioVisualisator_bsp/\libucosii_bsp.a(alt_alarm_start.o)
 .debug_aranges
                0x0000000000000d78       0x20 D:/Dev/vhdl/dev/testNIOS/audioVisualisator_bsp/\libucosii_bsp.a(alt_dcache_flush_all.o)
 .debug_aranges
                0x0000000000000d98       0x20 D:/Dev/vhdl/dev/testNIOS/audioVisualisator_bsp/\libucosii_bsp.a(alt_dev_llist_insert.o)
 .debug_aranges
                0x0000000000000db8       0x20 D:/Dev/vhdl/dev/testNIOS/audioVisualisator_bsp/\libucosii_bsp.a(alt_do_ctors.o)
 .debug_aranges
                0x0000000000000dd8       0x20 D:/Dev/vhdl/dev/testNIOS/audioVisualisator_bsp/\libucosii_bsp.a(alt_do_dtors.o)
 .debug_aranges
                0x0000000000000df8       0x20 D:/Dev/vhdl/dev/testNIOS/audioVisualisator_bsp/\libucosii_bsp.a(alt_find_dev.o)
 .debug_aranges
                0x0000000000000e18       0x20 D:/Dev/vhdl/dev/testNIOS/audioVisualisator_bsp/\libucosii_bsp.a(alt_icache_flush_all.o)
 .debug_aranges
                0x0000000000000e38       0x20 D:/Dev/vhdl/dev/testNIOS/audioVisualisator_bsp/\libucosii_bsp.a(alt_io_redirect.o)
 .debug_aranges
                0x0000000000000e58       0x20 D:/Dev/vhdl/dev/testNIOS/audioVisualisator_bsp/\libucosii_bsp.a(alt_irq_register.o)
 .debug_aranges
                0x0000000000000e78       0x18 D:/Dev/vhdl/dev/testNIOS/audioVisualisator_bsp/\libucosii_bsp.a(alt_irq_vars.o)
 .debug_aranges
                0x0000000000000e90       0x20 D:/Dev/vhdl/dev/testNIOS/audioVisualisator_bsp/\libucosii_bsp.a(alt_open.o)
 .debug_aranges
                0x0000000000000eb0       0x20 D:/Dev/vhdl/dev/testNIOS/audioVisualisator_bsp/\libucosii_bsp.a(alt_tick.o)
 .debug_aranges
                0x0000000000000ed0       0x20 D:/Dev/vhdl/dev/testNIOS/audioVisualisator_bsp/\libucosii_bsp.a(altera_nios2_gen2_irq.o)
 .debug_aranges
                0x0000000000000ef0       0x20 D:/Dev/vhdl/dev/testNIOS/audioVisualisator_bsp/\libucosii_bsp.a(os_cpu_a.o)
 .debug_aranges
                0x0000000000000f10       0x20 D:/Dev/vhdl/dev/testNIOS/audioVisualisator_bsp/\libucosii_bsp.a(os_cpu_c.o)
 .debug_aranges
                0x0000000000000f30       0x20 D:/Dev/vhdl/dev/testNIOS/audioVisualisator_bsp/\libucosii_bsp.a(alt_find_file.o)
 .debug_aranges
                0x0000000000000f50       0x20 D:/Dev/vhdl/dev/testNIOS/audioVisualisator_bsp/\libucosii_bsp.a(alt_get_fd.o)
 .debug_aranges
                0x0000000000000f70       0x20 D:/Dev/vhdl/dev/testNIOS/audioVisualisator_bsp/\libucosii_bsp.a(alt_icache_flush.o)
 .debug_aranges
                0x0000000000000f90       0x30 D:/Dev/vhdl/dev/testNIOS/audioVisualisator_bsp/\libucosii_bsp.a(alt_irq_entry.o)
 .debug_aranges
                0x0000000000000fc0       0x20 D:/Dev/vhdl/dev/testNIOS/audioVisualisator_bsp/\libucosii_bsp.a(alt_irq_handler.o)
 .debug_aranges
                0x0000000000000fe0       0x38 D:/Dev/vhdl/dev/testNIOS/audioVisualisator_bsp/\libucosii_bsp.a(alt_exception_entry.o)
 .debug_aranges
                0x0000000000001018       0x28 D:/Dev/vhdl/dev/testNIOS/audioVisualisator_bsp/\libucosii_bsp.a(alt_instruction_exception_entry.o)
 .debug_aranges
                0x0000000000001040       0x20 d:/dev/vhdl/program/nios2eds/bin/gnu/h-x86_64-mingw32/bin/../lib/gcc/nios2-elf/5.3.0/../../../../../H-x86_64-mingw32/nios2-elf/lib/mhw-mulx\libc.a(lib_a-atexit.o)
 .debug_aranges
                0x0000000000001060       0x20 d:/dev/vhdl/program/nios2eds/bin/gnu/h-x86_64-mingw32/bin/../lib/gcc/nios2-elf/5.3.0/../../../../../H-x86_64-mingw32/nios2-elf/lib/mhw-mulx\libc.a(lib_a-exit.o)
 .debug_aranges
                0x0000000000001080       0x20 d:/dev/vhdl/program/nios2eds/bin/gnu/h-x86_64-mingw32/bin/../lib/gcc/nios2-elf/5.3.0/../../../../../H-x86_64-mingw32/nios2-elf/lib/mhw-mulx\libc.a(lib_a-memcmp.o)
 .debug_aranges
                0x00000000000010a0       0x20 d:/dev/vhdl/program/nios2eds/bin/gnu/h-x86_64-mingw32/bin/../lib/gcc/nios2-elf/5.3.0/../../../../../H-x86_64-mingw32/nios2-elf/lib/mhw-mulx\libc.a(lib_a-__atexit.o)
 .debug_aranges
                0x00000000000010c0       0x20 d:/dev/vhdl/program/nios2eds/bin/gnu/h-x86_64-mingw32/bin/../lib/gcc/nios2-elf/5.3.0/../../../../../H-x86_64-mingw32/nios2-elf/lib/mhw-mulx\libc.a(lib_a-__call_atexit.o)
 .debug_aranges
                0x00000000000010e0       0x20 D:/Dev/vhdl/dev/testNIOS/audioVisualisator_bsp/\libucosii_bsp.a(alt_exit.o)

.debug_pubnames
 *(.debug_pubnames)

.debug_info     0x0000000000000000    0x301d4
 *(.debug_info .gnu.linkonce.wi.*)
 .debug_info    0x0000000000000000       0x63 D:/Dev/vhdl/dev/testNIOS/audioVisualisator_bsp//obj/HAL/src/crt0.o
 .debug_info    0x0000000000000063      0x43a obj/default/hello_ucosii.o
 .debug_info    0x000000000000049d      0x174 obj/default/src/Audio.o
 .debug_info    0x0000000000000611      0x21c obj/default/src/Display.o
 .debug_info    0x000000000000082d      0x911 d:/dev/vhdl/program/nios2eds/bin/gnu/h-x86_64-mingw32/bin/../lib/gcc/nios2-elf/5.3.0/../../../../../H-x86_64-mingw32/nios2-elf/lib/mhw-mulx\libc.a(lib_a-malloc.o)
 .debug_info    0x000000000000113e      0xd57 d:/dev/vhdl/program/nios2eds/bin/gnu/h-x86_64-mingw32/bin/../lib/gcc/nios2-elf/5.3.0/../../../../../H-x86_64-mingw32/nios2-elf/lib/mhw-mulx\libc.a(lib_a-mallocr.o)
 .debug_info    0x0000000000001e95      0x991 d:/dev/vhdl/program/nios2eds/bin/gnu/h-x86_64-mingw32/bin/../lib/gcc/nios2-elf/5.3.0/../../../../../H-x86_64-mingw32/nios2-elf/lib/mhw-mulx\libc.a(lib_a-printf.o)
 .debug_info    0x0000000000002826      0x8d5 d:/dev/vhdl/program/nios2eds/bin/gnu/h-x86_64-mingw32/bin/../lib/gcc/nios2-elf/5.3.0/../../../../../H-x86_64-mingw32/nios2-elf/lib/mhw-mulx\libc.a(lib_a-rand.o)
 .debug_info    0x00000000000030fb      0x900 d:/dev/vhdl/program/nios2eds/bin/gnu/h-x86_64-mingw32/bin/../lib/gcc/nios2-elf/5.3.0/../../../../../H-x86_64-mingw32/nios2-elf/lib/mhw-mulx\libc.a(lib_a-sbrkr.o)
 .debug_info    0x00000000000039fb     0x16b8 d:/dev/vhdl/program/nios2eds/bin/gnu/h-x86_64-mingw32/bin/../lib/gcc/nios2-elf/5.3.0/../../../../../H-x86_64-mingw32/nios2-elf/lib/mhw-mulx\libc.a(lib_a-vfprintf.o)
 .debug_info    0x00000000000050b3      0x936 d:/dev/vhdl/program/nios2eds/bin/gnu/h-x86_64-mingw32/bin/../lib/gcc/nios2-elf/5.3.0/../../../../../H-x86_64-mingw32/nios2-elf/lib/mhw-mulx\libc.a(lib_a-wsetup.o)
 .debug_info    0x00000000000059e9     0x1247 d:/dev/vhdl/program/nios2eds/bin/gnu/h-x86_64-mingw32/bin/../lib/gcc/nios2-elf/5.3.0/../../../../../H-x86_64-mingw32/nios2-elf/lib/mhw-mulx\libc.a(lib_a-dtoa.o)
 .debug_info    0x0000000000006c30      0xa93 d:/dev/vhdl/program/nios2eds/bin/gnu/h-x86_64-mingw32/bin/../lib/gcc/nios2-elf/5.3.0/../../../../../H-x86_64-mingw32/nios2-elf/lib/mhw-mulx\libc.a(lib_a-fflush.o)
 .debug_info    0x00000000000076c3      0xd37 d:/dev/vhdl/program/nios2eds/bin/gnu/h-x86_64-mingw32/bin/../lib/gcc/nios2-elf/5.3.0/../../../../../H-x86_64-mingw32/nios2-elf/lib/mhw-mulx\libc.a(lib_a-findfp.o)
 .debug_info    0x00000000000083fa      0xbf7 d:/dev/vhdl/program/nios2eds/bin/gnu/h-x86_64-mingw32/bin/../lib/gcc/nios2-elf/5.3.0/../../../../../H-x86_64-mingw32/nios2-elf/lib/mhw-mulx\libc.a(lib_a-freer.o)
 .debug_info    0x0000000000008ff1      0x9b0 d:/dev/vhdl/program/nios2eds/bin/gnu/h-x86_64-mingw32/bin/../lib/gcc/nios2-elf/5.3.0/../../../../../H-x86_64-mingw32/nios2-elf/lib/mhw-mulx\libc.a(lib_a-fwalk.o)
 .debug_info    0x00000000000099a1      0x8a1 d:/dev/vhdl/program/nios2eds/bin/gnu/h-x86_64-mingw32/bin/../lib/gcc/nios2-elf/5.3.0/../../../../../H-x86_64-mingw32/nios2-elf/lib/mhw-mulx\libc.a(lib_a-impure.o)
 .debug_info    0x000000000000a242       0x8a d:/dev/vhdl/program/nios2eds/bin/gnu/h-x86_64-mingw32/bin/../lib/gcc/nios2-elf/5.3.0/../../../../../H-x86_64-mingw32/nios2-elf/lib/mhw-mulx\libc.a(lib_a-int_errno.o)
 .debug_info    0x000000000000a2cc      0xc25 d:/dev/vhdl/program/nios2eds/bin/gnu/h-x86_64-mingw32/bin/../lib/gcc/nios2-elf/5.3.0/../../../../../H-x86_64-mingw32/nios2-elf/lib/mhw-mulx\libc.a(lib_a-locale.o)
 .debug_info    0x000000000000aef1      0xad8 d:/dev/vhdl/program/nios2eds/bin/gnu/h-x86_64-mingw32/bin/../lib/gcc/nios2-elf/5.3.0/../../../../../H-x86_64-mingw32/nios2-elf/lib/mhw-mulx\libc.a(lib_a-makebuf.o)
 .debug_info    0x000000000000b9c9      0x132 d:/dev/vhdl/program/nios2eds/bin/gnu/h-x86_64-mingw32/bin/../lib/gcc/nios2-elf/5.3.0/../../../../../H-x86_64-mingw32/nios2-elf/lib/mhw-mulx\libc.a(lib_a-memchr.o)
 .debug_info    0x000000000000bafb      0x144 d:/dev/vhdl/program/nios2eds/bin/gnu/h-x86_64-mingw32/bin/../lib/gcc/nios2-elf/5.3.0/../../../../../H-x86_64-mingw32/nios2-elf/lib/mhw-mulx\libc.a(lib_a-memcpy.o)
 .debug_info    0x000000000000bc3f      0x121 d:/dev/vhdl/program/nios2eds/bin/gnu/h-x86_64-mingw32/bin/../lib/gcc/nios2-elf/5.3.0/../../../../../H-x86_64-mingw32/nios2-elf/lib/mhw-mulx\libc.a(lib_a-memset.o)
 .debug_info    0x000000000000bd60     0x16b7 d:/dev/vhdl/program/nios2eds/bin/gnu/h-x86_64-mingw32/bin/../lib/gcc/nios2-elf/5.3.0/../../../../../H-x86_64-mingw32/nios2-elf/lib/mhw-mulx\libc.a(lib_a-mprec.o)
 .debug_info    0x000000000000d417       0xdc d:/dev/vhdl/program/nios2eds/bin/gnu/h-x86_64-mingw32/bin/../lib/gcc/nios2-elf/5.3.0/../../../../../H-x86_64-mingw32/nios2-elf/lib/mhw-mulx\libc.a(lib_a-s_fpclassify.o)
 .debug_info    0x000000000000d4f3      0xb32 d:/dev/vhdl/program/nios2eds/bin/gnu/h-x86_64-mingw32/bin/../lib/gcc/nios2-elf/5.3.0/../../../../../H-x86_64-mingw32/nios2-elf/lib/mhw-mulx\libc.a(lib_a-stdio.o)
 .debug_info    0x000000000000e025       0xe4 d:/dev/vhdl/program/nios2eds/bin/gnu/h-x86_64-mingw32/bin/../lib/gcc/nios2-elf/5.3.0/../../../../../H-x86_64-mingw32/nios2-elf/lib/mhw-mulx\libc.a(lib_a-strcmp.o)
 .debug_info    0x000000000000e109       0xe2 d:/dev/vhdl/program/nios2eds/bin/gnu/h-x86_64-mingw32/bin/../lib/gcc/nios2-elf/5.3.0/../../../../../H-x86_64-mingw32/nios2-elf/lib/mhw-mulx\libc.a(lib_a-strlen.o)
 .debug_info    0x000000000000e1eb     0x1535 d:/dev/vhdl/program/nios2eds/bin/gnu/h-x86_64-mingw32/bin/../lib/gcc/nios2-elf/5.3.0/../../../../../H-x86_64-mingw32/nios2-elf/lib/mhw-mulx\libc.a(lib_a-vfiprintf.o)
 .debug_info    0x000000000000f720      0x928 d:/dev/vhdl/program/nios2eds/bin/gnu/h-x86_64-mingw32/bin/../lib/gcc/nios2-elf/5.3.0/../../../../../H-x86_64-mingw32/nios2-elf/lib/mhw-mulx\libc.a(lib_a-writer.o)
 .debug_info    0x0000000000010048      0x8df d:/dev/vhdl/program/nios2eds/bin/gnu/h-x86_64-mingw32/bin/../lib/gcc/nios2-elf/5.3.0/../../../../../H-x86_64-mingw32/nios2-elf/lib/mhw-mulx\libc.a(closer.o)
 .debug_info    0x0000000000010927      0x9d5 d:/dev/vhdl/program/nios2eds/bin/gnu/h-x86_64-mingw32/bin/../lib/gcc/nios2-elf/5.3.0/../../../../../H-x86_64-mingw32/nios2-elf/lib/mhw-mulx\libc.a(lib_a-callocr.o)
 .debug_info    0x00000000000112fc      0xa23 d:/dev/vhdl/program/nios2eds/bin/gnu/h-x86_64-mingw32/bin/../lib/gcc/nios2-elf/5.3.0/../../../../../H-x86_64-mingw32/nios2-elf/lib/mhw-mulx\libc.a(lib_a-fclose.o)
 .debug_info    0x0000000000011d1f      0xad4 d:/dev/vhdl/program/nios2eds/bin/gnu/h-x86_64-mingw32/bin/../lib/gcc/nios2-elf/5.3.0/../../../../../H-x86_64-mingw32/nios2-elf/lib/mhw-mulx\libc.a(lib_a-fputwc.o)
 .debug_info    0x00000000000127f3      0xa5d d:/dev/vhdl/program/nios2eds/bin/gnu/h-x86_64-mingw32/bin/../lib/gcc/nios2-elf/5.3.0/../../../../../H-x86_64-mingw32/nios2-elf/lib/mhw-mulx\libc.a(lib_a-fstatr.o)
 .debug_info    0x0000000000013250      0xbb8 d:/dev/vhdl/program/nios2eds/bin/gnu/h-x86_64-mingw32/bin/../lib/gcc/nios2-elf/5.3.0/../../../../../H-x86_64-mingw32/nios2-elf/lib/mhw-mulx\libc.a(lib_a-fvwrite.o)
 .debug_info    0x0000000000013e08      0x8df d:/dev/vhdl/program/nios2eds/bin/gnu/h-x86_64-mingw32/bin/../lib/gcc/nios2-elf/5.3.0/../../../../../H-x86_64-mingw32/nios2-elf/lib/mhw-mulx\libc.a(lib_a-isattyr.o)
 .debug_info    0x00000000000146e7      0x90b d:/dev/vhdl/program/nios2eds/bin/gnu/h-x86_64-mingw32/bin/../lib/gcc/nios2-elf/5.3.0/../../../../../H-x86_64-mingw32/nios2-elf/lib/mhw-mulx\libc.a(lib_a-lseekr.o)
 .debug_info    0x0000000000014ff2      0x13a d:/dev/vhdl/program/nios2eds/bin/gnu/h-x86_64-mingw32/bin/../lib/gcc/nios2-elf/5.3.0/../../../../../H-x86_64-mingw32/nios2-elf/lib/mhw-mulx\libc.a(lib_a-memmove.o)
 .debug_info    0x000000000001512c      0x921 d:/dev/vhdl/program/nios2eds/bin/gnu/h-x86_64-mingw32/bin/../lib/gcc/nios2-elf/5.3.0/../../../../../H-x86_64-mingw32/nios2-elf/lib/mhw-mulx\libc.a(lib_a-readr.o)
 .debug_info    0x0000000000015a4d      0xc6b d:/dev/vhdl/program/nios2eds/bin/gnu/h-x86_64-mingw32/bin/../lib/gcc/nios2-elf/5.3.0/../../../../../H-x86_64-mingw32/nios2-elf/lib/mhw-mulx\libc.a(lib_a-reallocr.o)
 .debug_info    0x00000000000166b8      0x9be d:/dev/vhdl/program/nios2eds/bin/gnu/h-x86_64-mingw32/bin/../lib/gcc/nios2-elf/5.3.0/../../../../../H-x86_64-mingw32/nios2-elf/lib/mhw-mulx\libc.a(lib_a-wbuf.o)
 .debug_info    0x0000000000017076      0xa82 d:/dev/vhdl/program/nios2eds/bin/gnu/h-x86_64-mingw32/bin/../lib/gcc/nios2-elf/5.3.0/../../../../../H-x86_64-mingw32/nios2-elf/lib/mhw-mulx\libc.a(lib_a-wcrtomb.o)
 .debug_info    0x0000000000017af8      0x9b1 d:/dev/vhdl/program/nios2eds/bin/gnu/h-x86_64-mingw32/bin/../lib/gcc/nios2-elf/5.3.0/../../../../../H-x86_64-mingw32/nios2-elf/lib/mhw-mulx\libc.a(lib_a-wctomb_r.o)
 .debug_info    0x00000000000184a9      0x70e d:/dev/vhdl/program/nios2eds/bin/gnu/h-x86_64-mingw32/bin/../lib/gcc/nios2-elf/5.3.0/mhw-mulx\libgcc.a(_udivdi3.o)
 .debug_info    0x0000000000018bb7      0x765 d:/dev/vhdl/program/nios2eds/bin/gnu/h-x86_64-mingw32/bin/../lib/gcc/nios2-elf/5.3.0/mhw-mulx\libgcc.a(_umoddi3.o)
 .debug_info    0x000000000001931c      0x2c6 d:/dev/vhdl/program/nios2eds/bin/gnu/h-x86_64-mingw32/bin/../lib/gcc/nios2-elf/5.3.0/mhw-mulx\libgcc.a(lib2-divmod.o)
 .debug_info    0x00000000000195e2      0x4a2 d:/dev/vhdl/program/nios2eds/bin/gnu/h-x86_64-mingw32/bin/../lib/gcc/nios2-elf/5.3.0/mhw-mulx\libgcc.a(adddf3.o)
 .debug_info    0x0000000000019a84      0x5c7 d:/dev/vhdl/program/nios2eds/bin/gnu/h-x86_64-mingw32/bin/../lib/gcc/nios2-elf/5.3.0/mhw-mulx\libgcc.a(divdf3.o)
 .debug_info    0x000000000001a04b      0x1e2 d:/dev/vhdl/program/nios2eds/bin/gnu/h-x86_64-mingw32/bin/../lib/gcc/nios2-elf/5.3.0/mhw-mulx\libgcc.a(eqdf2.o)
 .debug_info    0x000000000001a22d      0x202 d:/dev/vhdl/program/nios2eds/bin/gnu/h-x86_64-mingw32/bin/../lib/gcc/nios2-elf/5.3.0/mhw-mulx\libgcc.a(gedf2.o)
 .debug_info    0x000000000001a42f      0x204 d:/dev/vhdl/program/nios2eds/bin/gnu/h-x86_64-mingw32/bin/../lib/gcc/nios2-elf/5.3.0/mhw-mulx\libgcc.a(ledf2.o)
 .debug_info    0x000000000001a633      0x5f5 d:/dev/vhdl/program/nios2eds/bin/gnu/h-x86_64-mingw32/bin/../lib/gcc/nios2-elf/5.3.0/mhw-mulx\libgcc.a(muldf3.o)
 .debug_info    0x000000000001ac28      0x4a2 d:/dev/vhdl/program/nios2eds/bin/gnu/h-x86_64-mingw32/bin/../lib/gcc/nios2-elf/5.3.0/mhw-mulx\libgcc.a(subdf3.o)
 .debug_info    0x000000000001b0ca      0x1ae d:/dev/vhdl/program/nios2eds/bin/gnu/h-x86_64-mingw32/bin/../lib/gcc/nios2-elf/5.3.0/mhw-mulx\libgcc.a(fixdfsi.o)
 .debug_info    0x000000000001b278      0x1bc d:/dev/vhdl/program/nios2eds/bin/gnu/h-x86_64-mingw32/bin/../lib/gcc/nios2-elf/5.3.0/mhw-mulx\libgcc.a(floatsidf.o)
 .debug_info    0x000000000001b434      0x1b0 d:/dev/vhdl/program/nios2eds/bin/gnu/h-x86_64-mingw32/bin/../lib/gcc/nios2-elf/5.3.0/mhw-mulx\libgcc.a(floatunsidf.o)
 .debug_info    0x000000000001b5e4       0xb2 d:/dev/vhdl/program/nios2eds/bin/gnu/h-x86_64-mingw32/bin/../lib/gcc/nios2-elf/5.3.0/mhw-mulx\libgcc.a(_clz.o)
 .debug_info    0x000000000001b696      0x124 d:/dev/vhdl/program/nios2eds/bin/gnu/h-x86_64-mingw32/bin/../lib/gcc/nios2-elf/5.3.0/mhw-mulx\libgcc.a(_clzsi2.o)
 .debug_info    0x000000000001b7ba      0x36b D:/Dev/vhdl/dev/testNIOS/audioVisualisator_bsp/\libucosii_bsp.a(alt_close.o)
 .debug_info    0x000000000001bb25      0x59b D:/Dev/vhdl/dev/testNIOS/audioVisualisator_bsp/\libucosii_bsp.a(alt_dev.o)
 .debug_info    0x000000000001c0c0       0xa6 D:/Dev/vhdl/dev/testNIOS/audioVisualisator_bsp/\libucosii_bsp.a(alt_errno.o)
 .debug_info    0x000000000001c166      0x4d2 D:/Dev/vhdl/dev/testNIOS/audioVisualisator_bsp/\libucosii_bsp.a(alt_fstat.o)
 .debug_info    0x000000000001c638      0x4d5 D:/Dev/vhdl/dev/testNIOS/audioVisualisator_bsp/\libucosii_bsp.a(alt_isatty.o)
 .debug_info    0x000000000001cb0d      0x145 D:/Dev/vhdl/dev/testNIOS/audioVisualisator_bsp/\libucosii_bsp.a(alt_load.o)
 .debug_info    0x000000000001cc52      0x39c D:/Dev/vhdl/dev/testNIOS/audioVisualisator_bsp/\libucosii_bsp.a(alt_lseek.o)
 .debug_info    0x000000000001cfee      0x283 D:/Dev/vhdl/dev/testNIOS/audioVisualisator_bsp/\libucosii_bsp.a(alt_main.o)
 .debug_info    0x000000000001d271      0x4fa D:/Dev/vhdl/dev/testNIOS/audioVisualisator_bsp/\libucosii_bsp.a(alt_read.o)
 .debug_info    0x000000000001d76b      0x30f D:/Dev/vhdl/dev/testNIOS/audioVisualisator_bsp/\libucosii_bsp.a(alt_release_fd.o)
 .debug_info    0x000000000001da7a      0x1d2 D:/Dev/vhdl/dev/testNIOS/audioVisualisator_bsp/\libucosii_bsp.a(alt_sbrk.o)
 .debug_info    0x000000000001dc4c      0x501 D:/Dev/vhdl/dev/testNIOS/audioVisualisator_bsp/\libucosii_bsp.a(alt_write.o)
 .debug_info    0x000000000001e14d      0xc7d D:/Dev/vhdl/dev/testNIOS/audioVisualisator_bsp/\libucosii_bsp.a(alt_env_lock.o)
 .debug_info    0x000000000001edca      0xdc3 D:/Dev/vhdl/dev/testNIOS/audioVisualisator_bsp/\libucosii_bsp.a(alt_malloc_lock.o)
 .debug_info    0x000000000001fb8d     0x15cf D:/Dev/vhdl/dev/testNIOS/audioVisualisator_bsp/\libucosii_bsp.a(os_core.o)
 .debug_info    0x000000000002115c      0xabe D:/Dev/vhdl/dev/testNIOS/audioVisualisator_bsp/\libucosii_bsp.a(os_dbg.o)
 .debug_info    0x0000000000021c1a      0xfb2 D:/Dev/vhdl/dev/testNIOS/audioVisualisator_bsp/\libucosii_bsp.a(os_flag.o)
 .debug_info    0x0000000000022bcc      0x690 D:/Dev/vhdl/dev/testNIOS/audioVisualisator_bsp/\libucosii_bsp.a(os_mem.o)
 .debug_info    0x000000000002325c      0xdb9 D:/Dev/vhdl/dev/testNIOS/audioVisualisator_bsp/\libucosii_bsp.a(os_q.o)
 .debug_info    0x0000000000024015      0xa1a D:/Dev/vhdl/dev/testNIOS/audioVisualisator_bsp/\libucosii_bsp.a(os_sem.o)
 .debug_info    0x0000000000024a2f     0x112d D:/Dev/vhdl/dev/testNIOS/audioVisualisator_bsp/\libucosii_bsp.a(os_task.o)
 .debug_info    0x0000000000025b5c      0x6ff D:/Dev/vhdl/dev/testNIOS/audioVisualisator_bsp/\libucosii_bsp.a(os_time.o)
 .debug_info    0x000000000002625b      0xbf8 D:/Dev/vhdl/dev/testNIOS/audioVisualisator_bsp/\libucosii_bsp.a(alt_sys_init.o)
 .debug_info    0x0000000000026e53      0x691 D:/Dev/vhdl/dev/testNIOS/audioVisualisator_bsp/\libucosii_bsp.a(altera_avalon_jtag_uart_fd.o)
 .debug_info    0x00000000000274e4      0x6d6 D:/Dev/vhdl/dev/testNIOS/audioVisualisator_bsp/\libucosii_bsp.a(altera_avalon_jtag_uart_init.o)
 .debug_info    0x0000000000027bba      0x3e3 D:/Dev/vhdl/dev/testNIOS/audioVisualisator_bsp/\libucosii_bsp.a(altera_avalon_jtag_uart_ioctl.o)
 .debug_info    0x0000000000027f9d      0x590 D:/Dev/vhdl/dev/testNIOS/audioVisualisator_bsp/\libucosii_bsp.a(altera_avalon_jtag_uart_read.o)
 .debug_info    0x000000000002852d      0x58f D:/Dev/vhdl/dev/testNIOS/audioVisualisator_bsp/\libucosii_bsp.a(altera_avalon_jtag_uart_write.o)
 .debug_info    0x0000000000028abc      0x249 D:/Dev/vhdl/dev/testNIOS/audioVisualisator_bsp/\libucosii_bsp.a(altera_avalon_timer_sc.o)
 .debug_info    0x0000000000028d05      0x7e0 D:/Dev/vhdl/dev/testNIOS/audioVisualisator_bsp/\libucosii_bsp.a(altera_up_avalon_audio.o)
 .debug_info    0x00000000000294e5      0x625 D:/Dev/vhdl/dev/testNIOS/audioVisualisator_bsp/\libucosii_bsp.a(altera_up_avalon_character_lcd.o)
 .debug_info    0x0000000000029b0a      0x5a7 D:/Dev/vhdl/dev/testNIOS/audioVisualisator_bsp/\libucosii_bsp.a(altera_up_avalon_irda.o)
 .debug_info    0x000000000002a0b1      0x813 D:/Dev/vhdl/dev/testNIOS/audioVisualisator_bsp/\libucosii_bsp.a(altera_up_avalon_ps2.o)
 .debug_info    0x000000000002a8c4      0x5a7 D:/Dev/vhdl/dev/testNIOS/audioVisualisator_bsp/\libucosii_bsp.a(altera_up_avalon_rs232.o)
 .debug_info    0x000000000002ae6b      0x2e2 D:/Dev/vhdl/dev/testNIOS/audioVisualisator_bsp/\libucosii_bsp.a(alt_alarm_start.o)
 .debug_info    0x000000000002b14d       0x92 D:/Dev/vhdl/dev/testNIOS/audioVisualisator_bsp/\libucosii_bsp.a(alt_dcache_flush_all.o)
 .debug_info    0x000000000002b1df      0x1a9 D:/Dev/vhdl/dev/testNIOS/audioVisualisator_bsp/\libucosii_bsp.a(alt_dev_llist_insert.o)
 .debug_info    0x000000000002b388       0x83 D:/Dev/vhdl/dev/testNIOS/audioVisualisator_bsp/\libucosii_bsp.a(alt_do_ctors.o)
 .debug_info    0x000000000002b40b       0x83 D:/Dev/vhdl/dev/testNIOS/audioVisualisator_bsp/\libucosii_bsp.a(alt_do_dtors.o)
 .debug_info    0x000000000002b48e      0x333 D:/Dev/vhdl/dev/testNIOS/audioVisualisator_bsp/\libucosii_bsp.a(alt_find_dev.o)
 .debug_info    0x000000000002b7c1       0x92 D:/Dev/vhdl/dev/testNIOS/audioVisualisator_bsp/\libucosii_bsp.a(alt_icache_flush_all.o)
 .debug_info    0x000000000002b853      0x4ef D:/Dev/vhdl/dev/testNIOS/audioVisualisator_bsp/\libucosii_bsp.a(alt_io_redirect.o)
 .debug_info    0x000000000002bd42      0x34d D:/Dev/vhdl/dev/testNIOS/audioVisualisator_bsp/\libucosii_bsp.a(alt_irq_register.o)
 .debug_info    0x000000000002c08f       0x88 D:/Dev/vhdl/dev/testNIOS/audioVisualisator_bsp/\libucosii_bsp.a(alt_irq_vars.o)
 .debug_info    0x000000000002c117      0x3fa D:/Dev/vhdl/dev/testNIOS/audioVisualisator_bsp/\libucosii_bsp.a(alt_open.o)
 .debug_info    0x000000000002c511      0x2bd D:/Dev/vhdl/dev/testNIOS/audioVisualisator_bsp/\libucosii_bsp.a(alt_tick.o)
 .debug_info    0x000000000002c7ce       0xb8 D:/Dev/vhdl/dev/testNIOS/audioVisualisator_bsp/\libucosii_bsp.a(altera_nios2_gen2_irq.o)
 .debug_info    0x000000000002c886       0x6b D:/Dev/vhdl/dev/testNIOS/audioVisualisator_bsp/\libucosii_bsp.a(os_cpu_a.o)
 .debug_info    0x000000000002c8f1      0xd00 D:/Dev/vhdl/dev/testNIOS/audioVisualisator_bsp/\libucosii_bsp.a(os_cpu_c.o)
 .debug_info    0x000000000002d5f1      0x330 D:/Dev/vhdl/dev/testNIOS/audioVisualisator_bsp/\libucosii_bsp.a(alt_find_file.o)
 .debug_info    0x000000000002d921      0x461 D:/Dev/vhdl/dev/testNIOS/audioVisualisator_bsp/\libucosii_bsp.a(alt_get_fd.o)
 .debug_info    0x000000000002dd82       0xdc D:/Dev/vhdl/dev/testNIOS/audioVisualisator_bsp/\libucosii_bsp.a(alt_icache_flush.o)
 .debug_info    0x000000000002de5e       0x6c D:/Dev/vhdl/dev/testNIOS/audioVisualisator_bsp/\libucosii_bsp.a(alt_irq_entry.o)
 .debug_info    0x000000000002deca      0x1cb D:/Dev/vhdl/dev/testNIOS/audioVisualisator_bsp/\libucosii_bsp.a(alt_irq_handler.o)
 .debug_info    0x000000000002e095       0x72 D:/Dev/vhdl/dev/testNIOS/audioVisualisator_bsp/\libucosii_bsp.a(alt_exception_entry.o)
 .debug_info    0x000000000002e107      0x1e7 D:/Dev/vhdl/dev/testNIOS/audioVisualisator_bsp/\libucosii_bsp.a(alt_instruction_exception_entry.o)
 .debug_info    0x000000000002e2ee       0xfe d:/dev/vhdl/program/nios2eds/bin/gnu/h-x86_64-mingw32/bin/../lib/gcc/nios2-elf/5.3.0/../../../../../H-x86_64-mingw32/nios2-elf/lib/mhw-mulx\libc.a(lib_a-atexit.o)
 .debug_info    0x000000000002e3ec      0x8e4 d:/dev/vhdl/program/nios2eds/bin/gnu/h-x86_64-mingw32/bin/../lib/gcc/nios2-elf/5.3.0/../../../../../H-x86_64-mingw32/nios2-elf/lib/mhw-mulx\libc.a(lib_a-exit.o)
 .debug_info    0x000000000002ecd0      0x11a d:/dev/vhdl/program/nios2eds/bin/gnu/h-x86_64-mingw32/bin/../lib/gcc/nios2-elf/5.3.0/../../../../../H-x86_64-mingw32/nios2-elf/lib/mhw-mulx\libc.a(lib_a-memcmp.o)
 .debug_info    0x000000000002edea      0x934 d:/dev/vhdl/program/nios2eds/bin/gnu/h-x86_64-mingw32/bin/../lib/gcc/nios2-elf/5.3.0/../../../../../H-x86_64-mingw32/nios2-elf/lib/mhw-mulx\libc.a(lib_a-__atexit.o)
 .debug_info    0x000000000002f71e      0x965 d:/dev/vhdl/program/nios2eds/bin/gnu/h-x86_64-mingw32/bin/../lib/gcc/nios2-elf/5.3.0/../../../../../H-x86_64-mingw32/nios2-elf/lib/mhw-mulx\libc.a(lib_a-__call_atexit.o)
 .debug_info    0x0000000000030083      0x151 D:/Dev/vhdl/dev/testNIOS/audioVisualisator_bsp/\libucosii_bsp.a(alt_exit.o)

.debug_abbrev   0x0000000000000000     0xb448
 *(.debug_abbrev)
 .debug_abbrev  0x0000000000000000       0x12 D:/Dev/vhdl/dev/testNIOS/audioVisualisator_bsp//obj/HAL/src/crt0.o
 .debug_abbrev  0x0000000000000012      0x144 obj/default/hello_ucosii.o
 .debug_abbrev  0x0000000000000156       0xdc obj/default/src/Audio.o
 .debug_abbrev  0x0000000000000232      0x11d obj/default/src/Display.o
 .debug_abbrev  0x000000000000034f      0x1f4 d:/dev/vhdl/program/nios2eds/bin/gnu/h-x86_64-mingw32/bin/../lib/gcc/nios2-elf/5.3.0/../../../../../H-x86_64-mingw32/nios2-elf/lib/mhw-mulx\libc.a(lib_a-malloc.o)
 .debug_abbrev  0x0000000000000543      0x29d d:/dev/vhdl/program/nios2eds/bin/gnu/h-x86_64-mingw32/bin/../lib/gcc/nios2-elf/5.3.0/../../../../../H-x86_64-mingw32/nios2-elf/lib/mhw-mulx\libc.a(lib_a-mallocr.o)
 .debug_abbrev  0x00000000000007e0      0x233 d:/dev/vhdl/program/nios2eds/bin/gnu/h-x86_64-mingw32/bin/../lib/gcc/nios2-elf/5.3.0/../../../../../H-x86_64-mingw32/nios2-elf/lib/mhw-mulx\libc.a(lib_a-printf.o)
 .debug_abbrev  0x0000000000000a13      0x1e5 d:/dev/vhdl/program/nios2eds/bin/gnu/h-x86_64-mingw32/bin/../lib/gcc/nios2-elf/5.3.0/../../../../../H-x86_64-mingw32/nios2-elf/lib/mhw-mulx\libc.a(lib_a-rand.o)
 .debug_abbrev  0x0000000000000bf8      0x20a d:/dev/vhdl/program/nios2eds/bin/gnu/h-x86_64-mingw32/bin/../lib/gcc/nios2-elf/5.3.0/../../../../../H-x86_64-mingw32/nios2-elf/lib/mhw-mulx\libc.a(lib_a-sbrkr.o)
 .debug_abbrev  0x0000000000000e02      0x3bf d:/dev/vhdl/program/nios2eds/bin/gnu/h-x86_64-mingw32/bin/../lib/gcc/nios2-elf/5.3.0/../../../../../H-x86_64-mingw32/nios2-elf/lib/mhw-mulx\libc.a(lib_a-vfprintf.o)
 .debug_abbrev  0x00000000000011c1      0x218 d:/dev/vhdl/program/nios2eds/bin/gnu/h-x86_64-mingw32/bin/../lib/gcc/nios2-elf/5.3.0/../../../../../H-x86_64-mingw32/nios2-elf/lib/mhw-mulx\libc.a(lib_a-wsetup.o)
 .debug_abbrev  0x00000000000013d9      0x2b8 d:/dev/vhdl/program/nios2eds/bin/gnu/h-x86_64-mingw32/bin/../lib/gcc/nios2-elf/5.3.0/../../../../../H-x86_64-mingw32/nios2-elf/lib/mhw-mulx\libc.a(lib_a-dtoa.o)
 .debug_abbrev  0x0000000000001691      0x2a0 d:/dev/vhdl/program/nios2eds/bin/gnu/h-x86_64-mingw32/bin/../lib/gcc/nios2-elf/5.3.0/../../../../../H-x86_64-mingw32/nios2-elf/lib/mhw-mulx\libc.a(lib_a-fflush.o)
 .debug_abbrev  0x0000000000001931      0x391 d:/dev/vhdl/program/nios2eds/bin/gnu/h-x86_64-mingw32/bin/../lib/gcc/nios2-elf/5.3.0/../../../../../H-x86_64-mingw32/nios2-elf/lib/mhw-mulx\libc.a(lib_a-findfp.o)
 .debug_abbrev  0x0000000000001cc2      0x264 d:/dev/vhdl/program/nios2eds/bin/gnu/h-x86_64-mingw32/bin/../lib/gcc/nios2-elf/5.3.0/../../../../../H-x86_64-mingw32/nios2-elf/lib/mhw-mulx\libc.a(lib_a-freer.o)
 .debug_abbrev  0x0000000000001f26      0x1d1 d:/dev/vhdl/program/nios2eds/bin/gnu/h-x86_64-mingw32/bin/../lib/gcc/nios2-elf/5.3.0/../../../../../H-x86_64-mingw32/nios2-elf/lib/mhw-mulx\libc.a(lib_a-fwalk.o)
 .debug_abbrev  0x00000000000020f7      0x18f d:/dev/vhdl/program/nios2eds/bin/gnu/h-x86_64-mingw32/bin/../lib/gcc/nios2-elf/5.3.0/../../../../../H-x86_64-mingw32/nios2-elf/lib/mhw-mulx\libc.a(lib_a-impure.o)
 .debug_abbrev  0x0000000000002286       0x37 d:/dev/vhdl/program/nios2eds/bin/gnu/h-x86_64-mingw32/bin/../lib/gcc/nios2-elf/5.3.0/../../../../../H-x86_64-mingw32/nios2-elf/lib/mhw-mulx\libc.a(lib_a-int_errno.o)
 .debug_abbrev  0x00000000000022bd      0x2c0 d:/dev/vhdl/program/nios2eds/bin/gnu/h-x86_64-mingw32/bin/../lib/gcc/nios2-elf/5.3.0/../../../../../H-x86_64-mingw32/nios2-elf/lib/mhw-mulx\libc.a(lib_a-locale.o)
 .debug_abbrev  0x000000000000257d      0x20f d:/dev/vhdl/program/nios2eds/bin/gnu/h-x86_64-mingw32/bin/../lib/gcc/nios2-elf/5.3.0/../../../../../H-x86_64-mingw32/nios2-elf/lib/mhw-mulx\libc.a(lib_a-makebuf.o)
 .debug_abbrev  0x000000000000278c       0xab d:/dev/vhdl/program/nios2eds/bin/gnu/h-x86_64-mingw32/bin/../lib/gcc/nios2-elf/5.3.0/../../../../../H-x86_64-mingw32/nios2-elf/lib/mhw-mulx\libc.a(lib_a-memchr.o)
 .debug_abbrev  0x0000000000002837       0xa3 d:/dev/vhdl/program/nios2eds/bin/gnu/h-x86_64-mingw32/bin/../lib/gcc/nios2-elf/5.3.0/../../../../../H-x86_64-mingw32/nios2-elf/lib/mhw-mulx\libc.a(lib_a-memcpy.o)
 .debug_abbrev  0x00000000000028da       0xae d:/dev/vhdl/program/nios2eds/bin/gnu/h-x86_64-mingw32/bin/../lib/gcc/nios2-elf/5.3.0/../../../../../H-x86_64-mingw32/nios2-elf/lib/mhw-mulx\libc.a(lib_a-memset.o)
 .debug_abbrev  0x0000000000002988      0x3d7 d:/dev/vhdl/program/nios2eds/bin/gnu/h-x86_64-mingw32/bin/../lib/gcc/nios2-elf/5.3.0/../../../../../H-x86_64-mingw32/nios2-elf/lib/mhw-mulx\libc.a(lib_a-mprec.o)
 .debug_abbrev  0x0000000000002d5f       0x7e d:/dev/vhdl/program/nios2eds/bin/gnu/h-x86_64-mingw32/bin/../lib/gcc/nios2-elf/5.3.0/../../../../../H-x86_64-mingw32/nios2-elf/lib/mhw-mulx\libc.a(lib_a-s_fpclassify.o)
 .debug_abbrev  0x0000000000002ddd      0x239 d:/dev/vhdl/program/nios2eds/bin/gnu/h-x86_64-mingw32/bin/../lib/gcc/nios2-elf/5.3.0/../../../../../H-x86_64-mingw32/nios2-elf/lib/mhw-mulx\libc.a(lib_a-stdio.o)
 .debug_abbrev  0x0000000000003016       0x74 d:/dev/vhdl/program/nios2eds/bin/gnu/h-x86_64-mingw32/bin/../lib/gcc/nios2-elf/5.3.0/../../../../../H-x86_64-mingw32/nios2-elf/lib/mhw-mulx\libc.a(lib_a-strcmp.o)
 .debug_abbrev  0x000000000000308a       0x90 d:/dev/vhdl/program/nios2eds/bin/gnu/h-x86_64-mingw32/bin/../lib/gcc/nios2-elf/5.3.0/../../../../../H-x86_64-mingw32/nios2-elf/lib/mhw-mulx\libc.a(lib_a-strlen.o)
 .debug_abbrev  0x000000000000311a      0x3ce d:/dev/vhdl/program/nios2eds/bin/gnu/h-x86_64-mingw32/bin/../lib/gcc/nios2-elf/5.3.0/../../../../../H-x86_64-mingw32/nios2-elf/lib/mhw-mulx\libc.a(lib_a-vfiprintf.o)
 .debug_abbrev  0x00000000000034e8      0x1eb d:/dev/vhdl/program/nios2eds/bin/gnu/h-x86_64-mingw32/bin/../lib/gcc/nios2-elf/5.3.0/../../../../../H-x86_64-mingw32/nios2-elf/lib/mhw-mulx\libc.a(lib_a-writer.o)
 .debug_abbrev  0x00000000000036d3      0x1e6 d:/dev/vhdl/program/nios2eds/bin/gnu/h-x86_64-mingw32/bin/../lib/gcc/nios2-elf/5.3.0/../../../../../H-x86_64-mingw32/nios2-elf/lib/mhw-mulx\libc.a(closer.o)
 .debug_abbrev  0x00000000000038b9      0x209 d:/dev/vhdl/program/nios2eds/bin/gnu/h-x86_64-mingw32/bin/../lib/gcc/nios2-elf/5.3.0/../../../../../H-x86_64-mingw32/nios2-elf/lib/mhw-mulx\libc.a(lib_a-callocr.o)
 .debug_abbrev  0x0000000000003ac2      0x2a2 d:/dev/vhdl/program/nios2eds/bin/gnu/h-x86_64-mingw32/bin/../lib/gcc/nios2-elf/5.3.0/../../../../../H-x86_64-mingw32/nios2-elf/lib/mhw-mulx\libc.a(lib_a-fclose.o)
 .debug_abbrev  0x0000000000003d64      0x2b9 d:/dev/vhdl/program/nios2eds/bin/gnu/h-x86_64-mingw32/bin/../lib/gcc/nios2-elf/5.3.0/../../../../../H-x86_64-mingw32/nios2-elf/lib/mhw-mulx\libc.a(lib_a-fputwc.o)
 .debug_abbrev  0x000000000000401d      0x1f5 d:/dev/vhdl/program/nios2eds/bin/gnu/h-x86_64-mingw32/bin/../lib/gcc/nios2-elf/5.3.0/../../../../../H-x86_64-mingw32/nios2-elf/lib/mhw-mulx\libc.a(lib_a-fstatr.o)
 .debug_abbrev  0x0000000000004212      0x228 d:/dev/vhdl/program/nios2eds/bin/gnu/h-x86_64-mingw32/bin/../lib/gcc/nios2-elf/5.3.0/../../../../../H-x86_64-mingw32/nios2-elf/lib/mhw-mulx\libc.a(lib_a-fvwrite.o)
 .debug_abbrev  0x000000000000443a      0x1e6 d:/dev/vhdl/program/nios2eds/bin/gnu/h-x86_64-mingw32/bin/../lib/gcc/nios2-elf/5.3.0/../../../../../H-x86_64-mingw32/nios2-elf/lib/mhw-mulx\libc.a(lib_a-isattyr.o)
 .debug_abbrev  0x0000000000004620      0x1f5 d:/dev/vhdl/program/nios2eds/bin/gnu/h-x86_64-mingw32/bin/../lib/gcc/nios2-elf/5.3.0/../../../../../H-x86_64-mingw32/nios2-elf/lib/mhw-mulx\libc.a(lib_a-lseekr.o)
 .debug_abbrev  0x0000000000004815       0x9c d:/dev/vhdl/program/nios2eds/bin/gnu/h-x86_64-mingw32/bin/../lib/gcc/nios2-elf/5.3.0/../../../../../H-x86_64-mingw32/nios2-elf/lib/mhw-mulx\libc.a(lib_a-memmove.o)
 .debug_abbrev  0x00000000000048b1      0x1e6 d:/dev/vhdl/program/nios2eds/bin/gnu/h-x86_64-mingw32/bin/../lib/gcc/nios2-elf/5.3.0/../../../../../H-x86_64-mingw32/nios2-elf/lib/mhw-mulx\libc.a(lib_a-readr.o)
 .debug_abbrev  0x0000000000004a97      0x231 d:/dev/vhdl/program/nios2eds/bin/gnu/h-x86_64-mingw32/bin/../lib/gcc/nios2-elf/5.3.0/../../../../../H-x86_64-mingw32/nios2-elf/lib/mhw-mulx\libc.a(lib_a-reallocr.o)
 .debug_abbrev  0x0000000000004cc8      0x251 d:/dev/vhdl/program/nios2eds/bin/gnu/h-x86_64-mingw32/bin/../lib/gcc/nios2-elf/5.3.0/../../../../../H-x86_64-mingw32/nios2-elf/lib/mhw-mulx\libc.a(lib_a-wbuf.o)
 .debug_abbrev  0x0000000000004f19      0x230 d:/dev/vhdl/program/nios2eds/bin/gnu/h-x86_64-mingw32/bin/../lib/gcc/nios2-elf/5.3.0/../../../../../H-x86_64-mingw32/nios2-elf/lib/mhw-mulx\libc.a(lib_a-wcrtomb.o)
 .debug_abbrev  0x0000000000005149      0x21f d:/dev/vhdl/program/nios2eds/bin/gnu/h-x86_64-mingw32/bin/../lib/gcc/nios2-elf/5.3.0/../../../../../H-x86_64-mingw32/nios2-elf/lib/mhw-mulx\libc.a(lib_a-wctomb_r.o)
 .debug_abbrev  0x0000000000005368      0x167 d:/dev/vhdl/program/nios2eds/bin/gnu/h-x86_64-mingw32/bin/../lib/gcc/nios2-elf/5.3.0/mhw-mulx\libgcc.a(_udivdi3.o)
 .debug_abbrev  0x00000000000054cf      0x18a d:/dev/vhdl/program/nios2eds/bin/gnu/h-x86_64-mingw32/bin/../lib/gcc/nios2-elf/5.3.0/mhw-mulx\libgcc.a(_umoddi3.o)
 .debug_abbrev  0x0000000000005659      0x10e d:/dev/vhdl/program/nios2eds/bin/gnu/h-x86_64-mingw32/bin/../lib/gcc/nios2-elf/5.3.0/mhw-mulx\libgcc.a(lib2-divmod.o)
 .debug_abbrev  0x0000000000005767      0x13a d:/dev/vhdl/program/nios2eds/bin/gnu/h-x86_64-mingw32/bin/../lib/gcc/nios2-elf/5.3.0/mhw-mulx\libgcc.a(adddf3.o)
 .debug_abbrev  0x00000000000058a1      0x12d d:/dev/vhdl/program/nios2eds/bin/gnu/h-x86_64-mingw32/bin/../lib/gcc/nios2-elf/5.3.0/mhw-mulx\libgcc.a(divdf3.o)
 .debug_abbrev  0x00000000000059ce      0x128 d:/dev/vhdl/program/nios2eds/bin/gnu/h-x86_64-mingw32/bin/../lib/gcc/nios2-elf/5.3.0/mhw-mulx\libgcc.a(eqdf2.o)
 .debug_abbrev  0x0000000000005af6      0x137 d:/dev/vhdl/program/nios2eds/bin/gnu/h-x86_64-mingw32/bin/../lib/gcc/nios2-elf/5.3.0/mhw-mulx\libgcc.a(gedf2.o)
 .debug_abbrev  0x0000000000005c2d      0x137 d:/dev/vhdl/program/nios2eds/bin/gnu/h-x86_64-mingw32/bin/../lib/gcc/nios2-elf/5.3.0/mhw-mulx\libgcc.a(ledf2.o)
 .debug_abbrev  0x0000000000005d64      0x13f d:/dev/vhdl/program/nios2eds/bin/gnu/h-x86_64-mingw32/bin/../lib/gcc/nios2-elf/5.3.0/mhw-mulx\libgcc.a(muldf3.o)
 .debug_abbrev  0x0000000000005ea3      0x133 d:/dev/vhdl/program/nios2eds/bin/gnu/h-x86_64-mingw32/bin/../lib/gcc/nios2-elf/5.3.0/mhw-mulx\libgcc.a(subdf3.o)
 .debug_abbrev  0x0000000000005fd6      0x135 d:/dev/vhdl/program/nios2eds/bin/gnu/h-x86_64-mingw32/bin/../lib/gcc/nios2-elf/5.3.0/mhw-mulx\libgcc.a(fixdfsi.o)
 .debug_abbrev  0x000000000000610b      0x124 d:/dev/vhdl/program/nios2eds/bin/gnu/h-x86_64-mingw32/bin/../lib/gcc/nios2-elf/5.3.0/mhw-mulx\libgcc.a(floatsidf.o)
 .debug_abbrev  0x000000000000622f      0x124 d:/dev/vhdl/program/nios2eds/bin/gnu/h-x86_64-mingw32/bin/../lib/gcc/nios2-elf/5.3.0/mhw-mulx\libgcc.a(floatunsidf.o)
 .debug_abbrev  0x0000000000006353       0x5d d:/dev/vhdl/program/nios2eds/bin/gnu/h-x86_64-mingw32/bin/../lib/gcc/nios2-elf/5.3.0/mhw-mulx\libgcc.a(_clz.o)
 .debug_abbrev  0x00000000000063b0       0xbe d:/dev/vhdl/program/nios2eds/bin/gnu/h-x86_64-mingw32/bin/../lib/gcc/nios2-elf/5.3.0/mhw-mulx\libgcc.a(_clzsi2.o)
 .debug_abbrev  0x000000000000646e      0x126 D:/Dev/vhdl/dev/testNIOS/audioVisualisator_bsp/\libucosii_bsp.a(alt_close.o)
 .debug_abbrev  0x0000000000006594      0x11c D:/Dev/vhdl/dev/testNIOS/audioVisualisator_bsp/\libucosii_bsp.a(alt_dev.o)
 .debug_abbrev  0x00000000000066b0       0x5a D:/Dev/vhdl/dev/testNIOS/audioVisualisator_bsp/\libucosii_bsp.a(alt_errno.o)
 .debug_abbrev  0x000000000000670a      0x126 D:/Dev/vhdl/dev/testNIOS/audioVisualisator_bsp/\libucosii_bsp.a(alt_fstat.o)
 .debug_abbrev  0x0000000000006830      0x126 D:/Dev/vhdl/dev/testNIOS/audioVisualisator_bsp/\libucosii_bsp.a(alt_isatty.o)
 .debug_abbrev  0x0000000000006956       0x9f D:/Dev/vhdl/dev/testNIOS/audioVisualisator_bsp/\libucosii_bsp.a(alt_load.o)
 .debug_abbrev  0x00000000000069f5      0x126 D:/Dev/vhdl/dev/testNIOS/audioVisualisator_bsp/\libucosii_bsp.a(alt_lseek.o)
 .debug_abbrev  0x0000000000006b1b      0x139 D:/Dev/vhdl/dev/testNIOS/audioVisualisator_bsp/\libucosii_bsp.a(alt_main.o)
 .debug_abbrev  0x0000000000006c54      0x135 D:/Dev/vhdl/dev/testNIOS/audioVisualisator_bsp/\libucosii_bsp.a(alt_read.o)
 .debug_abbrev  0x0000000000006d89       0xe5 D:/Dev/vhdl/dev/testNIOS/audioVisualisator_bsp/\libucosii_bsp.a(alt_release_fd.o)
 .debug_abbrev  0x0000000000006e6e      0x119 D:/Dev/vhdl/dev/testNIOS/audioVisualisator_bsp/\libucosii_bsp.a(alt_sbrk.o)
 .debug_abbrev  0x0000000000006f87      0x13a D:/Dev/vhdl/dev/testNIOS/audioVisualisator_bsp/\libucosii_bsp.a(alt_write.o)
 .debug_abbrev  0x00000000000070c1      0x1e3 D:/Dev/vhdl/dev/testNIOS/audioVisualisator_bsp/\libucosii_bsp.a(alt_env_lock.o)
 .debug_abbrev  0x00000000000072a4      0x26d D:/Dev/vhdl/dev/testNIOS/audioVisualisator_bsp/\libucosii_bsp.a(alt_malloc_lock.o)
 .debug_abbrev  0x0000000000007511      0x302 D:/Dev/vhdl/dev/testNIOS/audioVisualisator_bsp/\libucosii_bsp.a(os_core.o)
 .debug_abbrev  0x0000000000007813       0xf7 D:/Dev/vhdl/dev/testNIOS/audioVisualisator_bsp/\libucosii_bsp.a(os_dbg.o)
 .debug_abbrev  0x000000000000790a      0x25a D:/Dev/vhdl/dev/testNIOS/audioVisualisator_bsp/\libucosii_bsp.a(os_flag.o)
 .debug_abbrev  0x0000000000007b64      0x228 D:/Dev/vhdl/dev/testNIOS/audioVisualisator_bsp/\libucosii_bsp.a(os_mem.o)
 .debug_abbrev  0x0000000000007d8c      0x248 D:/Dev/vhdl/dev/testNIOS/audioVisualisator_bsp/\libucosii_bsp.a(os_q.o)
 .debug_abbrev  0x0000000000007fd4      0x262 D:/Dev/vhdl/dev/testNIOS/audioVisualisator_bsp/\libucosii_bsp.a(os_sem.o)
 .debug_abbrev  0x0000000000008236      0x247 D:/Dev/vhdl/dev/testNIOS/audioVisualisator_bsp/\libucosii_bsp.a(os_task.o)
 .debug_abbrev  0x000000000000847d      0x20c D:/Dev/vhdl/dev/testNIOS/audioVisualisator_bsp/\libucosii_bsp.a(os_time.o)
 .debug_abbrev  0x0000000000008689      0x1ef D:/Dev/vhdl/dev/testNIOS/audioVisualisator_bsp/\libucosii_bsp.a(alt_sys_init.o)
 .debug_abbrev  0x0000000000008878      0x16c D:/Dev/vhdl/dev/testNIOS/audioVisualisator_bsp/\libucosii_bsp.a(altera_avalon_jtag_uart_fd.o)
 .debug_abbrev  0x00000000000089e4      0x24f D:/Dev/vhdl/dev/testNIOS/audioVisualisator_bsp/\libucosii_bsp.a(altera_avalon_jtag_uart_init.o)
 .debug_abbrev  0x0000000000008c33      0x156 D:/Dev/vhdl/dev/testNIOS/audioVisualisator_bsp/\libucosii_bsp.a(altera_avalon_jtag_uart_ioctl.o)
 .debug_abbrev  0x0000000000008d89      0x1f8 D:/Dev/vhdl/dev/testNIOS/audioVisualisator_bsp/\libucosii_bsp.a(altera_avalon_jtag_uart_read.o)
 .debug_abbrev  0x0000000000008f81      0x1f6 D:/Dev/vhdl/dev/testNIOS/audioVisualisator_bsp/\libucosii_bsp.a(altera_avalon_jtag_uart_write.o)
 .debug_abbrev  0x0000000000009177      0x155 D:/Dev/vhdl/dev/testNIOS/audioVisualisator_bsp/\libucosii_bsp.a(altera_avalon_timer_sc.o)
 .debug_abbrev  0x00000000000092cc      0x165 D:/Dev/vhdl/dev/testNIOS/audioVisualisator_bsp/\libucosii_bsp.a(altera_up_avalon_audio.o)
 .debug_abbrev  0x0000000000009431      0x156 D:/Dev/vhdl/dev/testNIOS/audioVisualisator_bsp/\libucosii_bsp.a(altera_up_avalon_character_lcd.o)
 .debug_abbrev  0x0000000000009587      0x13c D:/Dev/vhdl/dev/testNIOS/audioVisualisator_bsp/\libucosii_bsp.a(altera_up_avalon_irda.o)
 .debug_abbrev  0x00000000000096c3      0x1a8 D:/Dev/vhdl/dev/testNIOS/audioVisualisator_bsp/\libucosii_bsp.a(altera_up_avalon_ps2.o)
 .debug_abbrev  0x000000000000986b      0x13c D:/Dev/vhdl/dev/testNIOS/audioVisualisator_bsp/\libucosii_bsp.a(altera_up_avalon_rs232.o)
 .debug_abbrev  0x00000000000099a7      0x162 D:/Dev/vhdl/dev/testNIOS/audioVisualisator_bsp/\libucosii_bsp.a(alt_alarm_start.o)
 .debug_abbrev  0x0000000000009b09       0x42 D:/Dev/vhdl/dev/testNIOS/audioVisualisator_bsp/\libucosii_bsp.a(alt_dcache_flush_all.o)
 .debug_abbrev  0x0000000000009b4b      0x114 D:/Dev/vhdl/dev/testNIOS/audioVisualisator_bsp/\libucosii_bsp.a(alt_dev_llist_insert.o)
 .debug_abbrev  0x0000000000009c5f       0x79 D:/Dev/vhdl/dev/testNIOS/audioVisualisator_bsp/\libucosii_bsp.a(alt_do_ctors.o)
 .debug_abbrev  0x0000000000009cd8       0x79 D:/Dev/vhdl/dev/testNIOS/audioVisualisator_bsp/\libucosii_bsp.a(alt_do_dtors.o)
 .debug_abbrev  0x0000000000009d51       0xf7 D:/Dev/vhdl/dev/testNIOS/audioVisualisator_bsp/\libucosii_bsp.a(alt_find_dev.o)
 .debug_abbrev  0x0000000000009e48       0x42 D:/Dev/vhdl/dev/testNIOS/audioVisualisator_bsp/\libucosii_bsp.a(alt_icache_flush_all.o)
 .debug_abbrev  0x0000000000009e8a      0x11b D:/Dev/vhdl/dev/testNIOS/audioVisualisator_bsp/\libucosii_bsp.a(alt_io_redirect.o)
 .debug_abbrev  0x0000000000009fa5      0x186 D:/Dev/vhdl/dev/testNIOS/audioVisualisator_bsp/\libucosii_bsp.a(alt_irq_register.o)
 .debug_abbrev  0x000000000000a12b       0x40 D:/Dev/vhdl/dev/testNIOS/audioVisualisator_bsp/\libucosii_bsp.a(alt_irq_vars.o)
 .debug_abbrev  0x000000000000a16b      0x14f D:/Dev/vhdl/dev/testNIOS/audioVisualisator_bsp/\libucosii_bsp.a(alt_open.o)
 .debug_abbrev  0x000000000000a2ba      0x16b D:/Dev/vhdl/dev/testNIOS/audioVisualisator_bsp/\libucosii_bsp.a(alt_tick.o)
 .debug_abbrev  0x000000000000a425       0x67 D:/Dev/vhdl/dev/testNIOS/audioVisualisator_bsp/\libucosii_bsp.a(altera_nios2_gen2_irq.o)
 .debug_abbrev  0x000000000000a48c       0x14 D:/Dev/vhdl/dev/testNIOS/audioVisualisator_bsp/\libucosii_bsp.a(os_cpu_a.o)
 .debug_abbrev  0x000000000000a4a0      0x215 D:/Dev/vhdl/dev/testNIOS/audioVisualisator_bsp/\libucosii_bsp.a(os_cpu_c.o)
 .debug_abbrev  0x000000000000a6b5       0xf7 D:/Dev/vhdl/dev/testNIOS/audioVisualisator_bsp/\libucosii_bsp.a(alt_find_file.o)
 .debug_abbrev  0x000000000000a7ac      0x19b D:/Dev/vhdl/dev/testNIOS/audioVisualisator_bsp/\libucosii_bsp.a(alt_get_fd.o)
 .debug_abbrev  0x000000000000a947       0x8c D:/Dev/vhdl/dev/testNIOS/audioVisualisator_bsp/\libucosii_bsp.a(alt_icache_flush.o)
 .debug_abbrev  0x000000000000a9d3       0x12 D:/Dev/vhdl/dev/testNIOS/audioVisualisator_bsp/\libucosii_bsp.a(alt_irq_entry.o)
 .debug_abbrev  0x000000000000a9e5      0x13a D:/Dev/vhdl/dev/testNIOS/audioVisualisator_bsp/\libucosii_bsp.a(alt_irq_handler.o)
 .debug_abbrev  0x000000000000ab1f       0x12 D:/Dev/vhdl/dev/testNIOS/audioVisualisator_bsp/\libucosii_bsp.a(alt_exception_entry.o)
 .debug_abbrev  0x000000000000ab31       0xdc D:/Dev/vhdl/dev/testNIOS/audioVisualisator_bsp/\libucosii_bsp.a(alt_instruction_exception_entry.o)
 .debug_abbrev  0x000000000000ac0d       0xaa d:/dev/vhdl/program/nios2eds/bin/gnu/h-x86_64-mingw32/bin/../lib/gcc/nios2-elf/5.3.0/../../../../../H-x86_64-mingw32/nios2-elf/lib/mhw-mulx\libc.a(lib_a-atexit.o)
 .debug_abbrev  0x000000000000acb7      0x1e5 d:/dev/vhdl/program/nios2eds/bin/gnu/h-x86_64-mingw32/bin/../lib/gcc/nios2-elf/5.3.0/../../../../../H-x86_64-mingw32/nios2-elf/lib/mhw-mulx\libc.a(lib_a-exit.o)
 .debug_abbrev  0x000000000000ae9c       0x7f d:/dev/vhdl/program/nios2eds/bin/gnu/h-x86_64-mingw32/bin/../lib/gcc/nios2-elf/5.3.0/../../../../../H-x86_64-mingw32/nios2-elf/lib/mhw-mulx\libc.a(lib_a-memcmp.o)
 .debug_abbrev  0x000000000000af1b      0x21e d:/dev/vhdl/program/nios2eds/bin/gnu/h-x86_64-mingw32/bin/../lib/gcc/nios2-elf/5.3.0/../../../../../H-x86_64-mingw32/nios2-elf/lib/mhw-mulx\libc.a(lib_a-__atexit.o)
 .debug_abbrev  0x000000000000b139      0x22e d:/dev/vhdl/program/nios2eds/bin/gnu/h-x86_64-mingw32/bin/../lib/gcc/nios2-elf/5.3.0/../../../../../H-x86_64-mingw32/nios2-elf/lib/mhw-mulx\libc.a(lib_a-__call_atexit.o)
 .debug_abbrev  0x000000000000b367       0xe1 D:/Dev/vhdl/dev/testNIOS/audioVisualisator_bsp/\libucosii_bsp.a(alt_exit.o)

.debug_line     0x0000000000000000     0xecbb
 *(.debug_line)
 .debug_line    0x0000000000000000       0x6c D:/Dev/vhdl/dev/testNIOS/audioVisualisator_bsp//obj/HAL/src/crt0.o
 .debug_line    0x000000000000006c      0x1f3 obj/default/hello_ucosii.o
 .debug_line    0x000000000000025f      0x125 obj/default/src/Audio.o
 .debug_line    0x0000000000000384      0x19e obj/default/src/Display.o
 .debug_line    0x0000000000000522      0x1f3 d:/dev/vhdl/program/nios2eds/bin/gnu/h-x86_64-mingw32/bin/../lib/gcc/nios2-elf/5.3.0/../../../../../H-x86_64-mingw32/nios2-elf/lib/mhw-mulx\libc.a(lib_a-malloc.o)
 .debug_line    0x0000000000000715      0x3fc d:/dev/vhdl/program/nios2eds/bin/gnu/h-x86_64-mingw32/bin/../lib/gcc/nios2-elf/5.3.0/../../../../../H-x86_64-mingw32/nios2-elf/lib/mhw-mulx\libc.a(lib_a-mallocr.o)
 .debug_line    0x0000000000000b11      0x20b d:/dev/vhdl/program/nios2eds/bin/gnu/h-x86_64-mingw32/bin/../lib/gcc/nios2-elf/5.3.0/../../../../../H-x86_64-mingw32/nios2-elf/lib/mhw-mulx\libc.a(lib_a-printf.o)
 .debug_line    0x0000000000000d1c      0x1f7 d:/dev/vhdl/program/nios2eds/bin/gnu/h-x86_64-mingw32/bin/../lib/gcc/nios2-elf/5.3.0/../../../../../H-x86_64-mingw32/nios2-elf/lib/mhw-mulx\libc.a(lib_a-rand.o)
 .debug_line    0x0000000000000f13      0x1e9 d:/dev/vhdl/program/nios2eds/bin/gnu/h-x86_64-mingw32/bin/../lib/gcc/nios2-elf/5.3.0/../../../../../H-x86_64-mingw32/nios2-elf/lib/mhw-mulx\libc.a(lib_a-sbrkr.o)
 .debug_line    0x00000000000010fc      0xc9b d:/dev/vhdl/program/nios2eds/bin/gnu/h-x86_64-mingw32/bin/../lib/gcc/nios2-elf/5.3.0/../../../../../H-x86_64-mingw32/nios2-elf/lib/mhw-mulx\libc.a(lib_a-vfprintf.o)
 .debug_line    0x0000000000001d97      0x266 d:/dev/vhdl/program/nios2eds/bin/gnu/h-x86_64-mingw32/bin/../lib/gcc/nios2-elf/5.3.0/../../../../../H-x86_64-mingw32/nios2-elf/lib/mhw-mulx\libc.a(lib_a-wsetup.o)
 .debug_line    0x0000000000001ffd      0x7cd d:/dev/vhdl/program/nios2eds/bin/gnu/h-x86_64-mingw32/bin/../lib/gcc/nios2-elf/5.3.0/../../../../../H-x86_64-mingw32/nios2-elf/lib/mhw-mulx\libc.a(lib_a-dtoa.o)
 .debug_line    0x00000000000027ca      0x2ea d:/dev/vhdl/program/nios2eds/bin/gnu/h-x86_64-mingw32/bin/../lib/gcc/nios2-elf/5.3.0/../../../../../H-x86_64-mingw32/nios2-elf/lib/mhw-mulx\libc.a(lib_a-fflush.o)
 .debug_line    0x0000000000002ab4      0x372 d:/dev/vhdl/program/nios2eds/bin/gnu/h-x86_64-mingw32/bin/../lib/gcc/nios2-elf/5.3.0/../../../../../H-x86_64-mingw32/nios2-elf/lib/mhw-mulx\libc.a(lib_a-findfp.o)
 .debug_line    0x0000000000002e26      0x2f7 d:/dev/vhdl/program/nios2eds/bin/gnu/h-x86_64-mingw32/bin/../lib/gcc/nios2-elf/5.3.0/../../../../../H-x86_64-mingw32/nios2-elf/lib/mhw-mulx\libc.a(lib_a-freer.o)
 .debug_line    0x000000000000311d      0x23a d:/dev/vhdl/program/nios2eds/bin/gnu/h-x86_64-mingw32/bin/../lib/gcc/nios2-elf/5.3.0/../../../../../H-x86_64-mingw32/nios2-elf/lib/mhw-mulx\libc.a(lib_a-fwalk.o)
 .debug_line    0x0000000000003357      0x160 d:/dev/vhdl/program/nios2eds/bin/gnu/h-x86_64-mingw32/bin/../lib/gcc/nios2-elf/5.3.0/../../../../../H-x86_64-mingw32/nios2-elf/lib/mhw-mulx\libc.a(lib_a-impure.o)
 .debug_line    0x00000000000034b7       0x5f d:/dev/vhdl/program/nios2eds/bin/gnu/h-x86_64-mingw32/bin/../lib/gcc/nios2-elf/5.3.0/../../../../../H-x86_64-mingw32/nios2-elf/lib/mhw-mulx\libc.a(lib_a-int_errno.o)
 .debug_line    0x0000000000003516      0x28e d:/dev/vhdl/program/nios2eds/bin/gnu/h-x86_64-mingw32/bin/../lib/gcc/nios2-elf/5.3.0/../../../../../H-x86_64-mingw32/nios2-elf/lib/mhw-mulx\libc.a(lib_a-locale.o)
 .debug_line    0x00000000000037a4      0x274 d:/dev/vhdl/program/nios2eds/bin/gnu/h-x86_64-mingw32/bin/../lib/gcc/nios2-elf/5.3.0/../../../../../H-x86_64-mingw32/nios2-elf/lib/mhw-mulx\libc.a(lib_a-makebuf.o)
 .debug_line    0x0000000000003a18      0x18d d:/dev/vhdl/program/nios2eds/bin/gnu/h-x86_64-mingw32/bin/../lib/gcc/nios2-elf/5.3.0/../../../../../H-x86_64-mingw32/nios2-elf/lib/mhw-mulx\libc.a(lib_a-memchr.o)
 .debug_line    0x0000000000003ba5      0x18c d:/dev/vhdl/program/nios2eds/bin/gnu/h-x86_64-mingw32/bin/../lib/gcc/nios2-elf/5.3.0/../../../../../H-x86_64-mingw32/nios2-elf/lib/mhw-mulx\libc.a(lib_a-memcpy.o)
 .debug_line    0x0000000000003d31      0x18f d:/dev/vhdl/program/nios2eds/bin/gnu/h-x86_64-mingw32/bin/../lib/gcc/nios2-elf/5.3.0/../../../../../H-x86_64-mingw32/nios2-elf/lib/mhw-mulx\libc.a(lib_a-memset.o)
 .debug_line    0x0000000000003ec0      0x78a d:/dev/vhdl/program/nios2eds/bin/gnu/h-x86_64-mingw32/bin/../lib/gcc/nios2-elf/5.3.0/../../../../../H-x86_64-mingw32/nios2-elf/lib/mhw-mulx\libc.a(lib_a-mprec.o)
 .debug_line    0x000000000000464a      0x16f d:/dev/vhdl/program/nios2eds/bin/gnu/h-x86_64-mingw32/bin/../lib/gcc/nios2-elf/5.3.0/../../../../../H-x86_64-mingw32/nios2-elf/lib/mhw-mulx\libc.a(lib_a-s_fpclassify.o)
 .debug_line    0x00000000000047b9      0x26a d:/dev/vhdl/program/nios2eds/bin/gnu/h-x86_64-mingw32/bin/../lib/gcc/nios2-elf/5.3.0/../../../../../H-x86_64-mingw32/nios2-elf/lib/mhw-mulx\libc.a(lib_a-stdio.o)
 .debug_line    0x0000000000004a23      0x101 d:/dev/vhdl/program/nios2eds/bin/gnu/h-x86_64-mingw32/bin/../lib/gcc/nios2-elf/5.3.0/../../../../../H-x86_64-mingw32/nios2-elf/lib/mhw-mulx\libc.a(lib_a-strcmp.o)
 .debug_line    0x0000000000004b24      0x16f d:/dev/vhdl/program/nios2eds/bin/gnu/h-x86_64-mingw32/bin/../lib/gcc/nios2-elf/5.3.0/../../../../../H-x86_64-mingw32/nios2-elf/lib/mhw-mulx\libc.a(lib_a-strlen.o)
 .debug_line    0x0000000000004c93      0x959 d:/dev/vhdl/program/nios2eds/bin/gnu/h-x86_64-mingw32/bin/../lib/gcc/nios2-elf/5.3.0/../../../../../H-x86_64-mingw32/nios2-elf/lib/mhw-mulx\libc.a(lib_a-vfiprintf.o)
 .debug_line    0x00000000000055ec      0x1f6 d:/dev/vhdl/program/nios2eds/bin/gnu/h-x86_64-mingw32/bin/../lib/gcc/nios2-elf/5.3.0/../../../../../H-x86_64-mingw32/nios2-elf/lib/mhw-mulx\libc.a(lib_a-writer.o)
 .debug_line    0x00000000000057e2      0x1f6 d:/dev/vhdl/program/nios2eds/bin/gnu/h-x86_64-mingw32/bin/../lib/gcc/nios2-elf/5.3.0/../../../../../H-x86_64-mingw32/nios2-elf/lib/mhw-mulx\libc.a(closer.o)
 .debug_line    0x00000000000059d8      0x1ab d:/dev/vhdl/program/nios2eds/bin/gnu/h-x86_64-mingw32/bin/../lib/gcc/nios2-elf/5.3.0/../../../../../H-x86_64-mingw32/nios2-elf/lib/mhw-mulx\libc.a(lib_a-callocr.o)
 .debug_line    0x0000000000005b83      0x239 d:/dev/vhdl/program/nios2eds/bin/gnu/h-x86_64-mingw32/bin/../lib/gcc/nios2-elf/5.3.0/../../../../../H-x86_64-mingw32/nios2-elf/lib/mhw-mulx\libc.a(lib_a-fclose.o)
 .debug_line    0x0000000000005dbc      0x2a5 d:/dev/vhdl/program/nios2eds/bin/gnu/h-x86_64-mingw32/bin/../lib/gcc/nios2-elf/5.3.0/../../../../../H-x86_64-mingw32/nios2-elf/lib/mhw-mulx\libc.a(lib_a-fputwc.o)
 .debug_line    0x0000000000006061      0x1ff d:/dev/vhdl/program/nios2eds/bin/gnu/h-x86_64-mingw32/bin/../lib/gcc/nios2-elf/5.3.0/../../../../../H-x86_64-mingw32/nios2-elf/lib/mhw-mulx\libc.a(lib_a-fstatr.o)
 .debug_line    0x0000000000006260      0x345 d:/dev/vhdl/program/nios2eds/bin/gnu/h-x86_64-mingw32/bin/../lib/gcc/nios2-elf/5.3.0/../../../../../H-x86_64-mingw32/nios2-elf/lib/mhw-mulx\libc.a(lib_a-fvwrite.o)
 .debug_line    0x00000000000065a5      0x1f7 d:/dev/vhdl/program/nios2eds/bin/gnu/h-x86_64-mingw32/bin/../lib/gcc/nios2-elf/5.3.0/../../../../../H-x86_64-mingw32/nios2-elf/lib/mhw-mulx\libc.a(lib_a-isattyr.o)
 .debug_line    0x000000000000679c      0x1f6 d:/dev/vhdl/program/nios2eds/bin/gnu/h-x86_64-mingw32/bin/../lib/gcc/nios2-elf/5.3.0/../../../../../H-x86_64-mingw32/nios2-elf/lib/mhw-mulx\libc.a(lib_a-lseekr.o)
 .debug_line    0x0000000000006992      0x18d d:/dev/vhdl/program/nios2eds/bin/gnu/h-x86_64-mingw32/bin/../lib/gcc/nios2-elf/5.3.0/../../../../../H-x86_64-mingw32/nios2-elf/lib/mhw-mulx\libc.a(lib_a-memmove.o)
 .debug_line    0x0000000000006b1f      0x1f5 d:/dev/vhdl/program/nios2eds/bin/gnu/h-x86_64-mingw32/bin/../lib/gcc/nios2-elf/5.3.0/../../../../../H-x86_64-mingw32/nios2-elf/lib/mhw-mulx\libc.a(lib_a-readr.o)
 .debug_line    0x0000000000006d14      0x2f5 d:/dev/vhdl/program/nios2eds/bin/gnu/h-x86_64-mingw32/bin/../lib/gcc/nios2-elf/5.3.0/../../../../../H-x86_64-mingw32/nios2-elf/lib/mhw-mulx\libc.a(lib_a-reallocr.o)
 .debug_line    0x0000000000007009      0x271 d:/dev/vhdl/program/nios2eds/bin/gnu/h-x86_64-mingw32/bin/../lib/gcc/nios2-elf/5.3.0/../../../../../H-x86_64-mingw32/nios2-elf/lib/mhw-mulx\libc.a(lib_a-wbuf.o)
 .debug_line    0x000000000000727a      0x226 d:/dev/vhdl/program/nios2eds/bin/gnu/h-x86_64-mingw32/bin/../lib/gcc/nios2-elf/5.3.0/../../../../../H-x86_64-mingw32/nios2-elf/lib/mhw-mulx\libc.a(lib_a-wcrtomb.o)
 .debug_line    0x00000000000074a0      0x21a d:/dev/vhdl/program/nios2eds/bin/gnu/h-x86_64-mingw32/bin/../lib/gcc/nios2-elf/5.3.0/../../../../../H-x86_64-mingw32/nios2-elf/lib/mhw-mulx\libc.a(lib_a-wctomb_r.o)
 .debug_line    0x00000000000076ba      0x130 d:/dev/vhdl/program/nios2eds/bin/gnu/h-x86_64-mingw32/bin/../lib/gcc/nios2-elf/5.3.0/mhw-mulx\libgcc.a(_udivdi3.o)
 .debug_line    0x00000000000077ea      0x140 d:/dev/vhdl/program/nios2eds/bin/gnu/h-x86_64-mingw32/bin/../lib/gcc/nios2-elf/5.3.0/mhw-mulx\libgcc.a(_umoddi3.o)
 .debug_line    0x000000000000792a      0x105 d:/dev/vhdl/program/nios2eds/bin/gnu/h-x86_64-mingw32/bin/../lib/gcc/nios2-elf/5.3.0/mhw-mulx\libgcc.a(lib2-divmod.o)
 .debug_line    0x0000000000007a2f      0x37e d:/dev/vhdl/program/nios2eds/bin/gnu/h-x86_64-mingw32/bin/../lib/gcc/nios2-elf/5.3.0/mhw-mulx\libgcc.a(adddf3.o)
 .debug_line    0x0000000000007dad      0x2b0 d:/dev/vhdl/program/nios2eds/bin/gnu/h-x86_64-mingw32/bin/../lib/gcc/nios2-elf/5.3.0/mhw-mulx\libgcc.a(divdf3.o)
 .debug_line    0x000000000000805d       0xad d:/dev/vhdl/program/nios2eds/bin/gnu/h-x86_64-mingw32/bin/../lib/gcc/nios2-elf/5.3.0/mhw-mulx\libgcc.a(eqdf2.o)
 .debug_line    0x000000000000810a       0xce d:/dev/vhdl/program/nios2eds/bin/gnu/h-x86_64-mingw32/bin/../lib/gcc/nios2-elf/5.3.0/mhw-mulx\libgcc.a(gedf2.o)
 .debug_line    0x00000000000081d8       0xe6 d:/dev/vhdl/program/nios2eds/bin/gnu/h-x86_64-mingw32/bin/../lib/gcc/nios2-elf/5.3.0/mhw-mulx\libgcc.a(ledf2.o)
 .debug_line    0x00000000000082be      0x1e6 d:/dev/vhdl/program/nios2eds/bin/gnu/h-x86_64-mingw32/bin/../lib/gcc/nios2-elf/5.3.0/mhw-mulx\libgcc.a(muldf3.o)
 .debug_line    0x00000000000084a4      0x3ab d:/dev/vhdl/program/nios2eds/bin/gnu/h-x86_64-mingw32/bin/../lib/gcc/nios2-elf/5.3.0/mhw-mulx\libgcc.a(subdf3.o)
 .debug_line    0x000000000000884f       0x9b d:/dev/vhdl/program/nios2eds/bin/gnu/h-x86_64-mingw32/bin/../lib/gcc/nios2-elf/5.3.0/mhw-mulx\libgcc.a(fixdfsi.o)
 .debug_line    0x00000000000088ea       0xa2 d:/dev/vhdl/program/nios2eds/bin/gnu/h-x86_64-mingw32/bin/../lib/gcc/nios2-elf/5.3.0/mhw-mulx\libgcc.a(floatsidf.o)
 .debug_line    0x000000000000898c       0x95 d:/dev/vhdl/program/nios2eds/bin/gnu/h-x86_64-mingw32/bin/../lib/gcc/nios2-elf/5.3.0/mhw-mulx\libgcc.a(floatunsidf.o)
 .debug_line    0x0000000000008a21       0x56 d:/dev/vhdl/program/nios2eds/bin/gnu/h-x86_64-mingw32/bin/../lib/gcc/nios2-elf/5.3.0/mhw-mulx\libgcc.a(_clz.o)
 .debug_line    0x0000000000008a77       0xbd d:/dev/vhdl/program/nios2eds/bin/gnu/h-x86_64-mingw32/bin/../lib/gcc/nios2-elf/5.3.0/mhw-mulx\libgcc.a(_clzsi2.o)
 .debug_line    0x0000000000008b34      0x185 D:/Dev/vhdl/dev/testNIOS/audioVisualisator_bsp/\libucosii_bsp.a(alt_close.o)
 .debug_line    0x0000000000008cb9      0x14d D:/Dev/vhdl/dev/testNIOS/audioVisualisator_bsp/\libucosii_bsp.a(alt_dev.o)
 .debug_line    0x0000000000008e06       0x51 D:/Dev/vhdl/dev/testNIOS/audioVisualisator_bsp/\libucosii_bsp.a(alt_errno.o)
 .debug_line    0x0000000000008e57      0x17e D:/Dev/vhdl/dev/testNIOS/audioVisualisator_bsp/\libucosii_bsp.a(alt_fstat.o)
 .debug_line    0x0000000000008fd5      0x182 D:/Dev/vhdl/dev/testNIOS/audioVisualisator_bsp/\libucosii_bsp.a(alt_isatty.o)
 .debug_line    0x0000000000009157       0x8e D:/Dev/vhdl/dev/testNIOS/audioVisualisator_bsp/\libucosii_bsp.a(alt_load.o)
 .debug_line    0x00000000000091e5      0x183 D:/Dev/vhdl/dev/testNIOS/audioVisualisator_bsp/\libucosii_bsp.a(alt_lseek.o)
 .debug_line    0x0000000000009368      0x143 D:/Dev/vhdl/dev/testNIOS/audioVisualisator_bsp/\libucosii_bsp.a(alt_main.o)
 .debug_line    0x00000000000094ab      0x1f9 D:/Dev/vhdl/dev/testNIOS/audioVisualisator_bsp/\libucosii_bsp.a(alt_read.o)
 .debug_line    0x00000000000096a4       0xd1 D:/Dev/vhdl/dev/testNIOS/audioVisualisator_bsp/\libucosii_bsp.a(alt_release_fd.o)
 .debug_line    0x0000000000009775      0x12c D:/Dev/vhdl/dev/testNIOS/audioVisualisator_bsp/\libucosii_bsp.a(alt_sbrk.o)
 .debug_line    0x00000000000098a1      0x1f8 D:/Dev/vhdl/dev/testNIOS/audioVisualisator_bsp/\libucosii_bsp.a(alt_write.o)
 .debug_line    0x0000000000009a99      0x1b8 D:/Dev/vhdl/dev/testNIOS/audioVisualisator_bsp/\libucosii_bsp.a(alt_env_lock.o)
 .debug_line    0x0000000000009c51      0x21c D:/Dev/vhdl/dev/testNIOS/audioVisualisator_bsp/\libucosii_bsp.a(alt_malloc_lock.o)
 .debug_line    0x0000000000009e6d      0x69f D:/Dev/vhdl/dev/testNIOS/audioVisualisator_bsp/\libucosii_bsp.a(os_core.o)
 .debug_line    0x000000000000a50c       0xe6 D:/Dev/vhdl/dev/testNIOS/audioVisualisator_bsp/\libucosii_bsp.a(os_dbg.o)
 .debug_line    0x000000000000a5f2      0x513 D:/Dev/vhdl/dev/testNIOS/audioVisualisator_bsp/\libucosii_bsp.a(os_flag.o)
 .debug_line    0x000000000000ab05      0x252 D:/Dev/vhdl/dev/testNIOS/audioVisualisator_bsp/\libucosii_bsp.a(os_mem.o)
 .debug_line    0x000000000000ad57      0x40f D:/Dev/vhdl/dev/testNIOS/audioVisualisator_bsp/\libucosii_bsp.a(os_q.o)
 .debug_line    0x000000000000b166      0x2f4 D:/Dev/vhdl/dev/testNIOS/audioVisualisator_bsp/\libucosii_bsp.a(os_sem.o)
 .debug_line    0x000000000000b45a      0x541 D:/Dev/vhdl/dev/testNIOS/audioVisualisator_bsp/\libucosii_bsp.a(os_task.o)
 .debug_line    0x000000000000b99b      0x1bc D:/Dev/vhdl/dev/testNIOS/audioVisualisator_bsp/\libucosii_bsp.a(os_time.o)
 .debug_line    0x000000000000bb57      0x3ca D:/Dev/vhdl/dev/testNIOS/audioVisualisator_bsp/\libucosii_bsp.a(alt_sys_init.o)
 .debug_line    0x000000000000bf21      0x169 D:/Dev/vhdl/dev/testNIOS/audioVisualisator_bsp/\libucosii_bsp.a(altera_avalon_jtag_uart_fd.o)
 .debug_line    0x000000000000c08a      0x238 D:/Dev/vhdl/dev/testNIOS/audioVisualisator_bsp/\libucosii_bsp.a(altera_avalon_jtag_uart_init.o)
 .debug_line    0x000000000000c2c2      0x16b D:/Dev/vhdl/dev/testNIOS/audioVisualisator_bsp/\libucosii_bsp.a(altera_avalon_jtag_uart_ioctl.o)
 .debug_line    0x000000000000c42d      0x1ef D:/Dev/vhdl/dev/testNIOS/audioVisualisator_bsp/\libucosii_bsp.a(altera_avalon_jtag_uart_read.o)
 .debug_line    0x000000000000c61c      0x1f0 D:/Dev/vhdl/dev/testNIOS/audioVisualisator_bsp/\libucosii_bsp.a(altera_avalon_jtag_uart_write.o)
 .debug_line    0x000000000000c80c      0x113 D:/Dev/vhdl/dev/testNIOS/audioVisualisator_bsp/\libucosii_bsp.a(altera_avalon_timer_sc.o)
 .debug_line    0x000000000000c91f      0x207 D:/Dev/vhdl/dev/testNIOS/audioVisualisator_bsp/\libucosii_bsp.a(altera_up_avalon_audio.o)
 .debug_line    0x000000000000cb26      0x1d7 D:/Dev/vhdl/dev/testNIOS/audioVisualisator_bsp/\libucosii_bsp.a(altera_up_avalon_character_lcd.o)
 .debug_line    0x000000000000ccfd      0x15f D:/Dev/vhdl/dev/testNIOS/audioVisualisator_bsp/\libucosii_bsp.a(altera_up_avalon_irda.o)
 .debug_line    0x000000000000ce5c      0x1c8 D:/Dev/vhdl/dev/testNIOS/audioVisualisator_bsp/\libucosii_bsp.a(altera_up_avalon_ps2.o)
 .debug_line    0x000000000000d024      0x161 D:/Dev/vhdl/dev/testNIOS/audioVisualisator_bsp/\libucosii_bsp.a(altera_up_avalon_rs232.o)
 .debug_line    0x000000000000d185      0x10d D:/Dev/vhdl/dev/testNIOS/audioVisualisator_bsp/\libucosii_bsp.a(alt_alarm_start.o)
 .debug_line    0x000000000000d292       0x51 D:/Dev/vhdl/dev/testNIOS/audioVisualisator_bsp/\libucosii_bsp.a(alt_dcache_flush_all.o)
 .debug_line    0x000000000000d2e3       0xcf D:/Dev/vhdl/dev/testNIOS/audioVisualisator_bsp/\libucosii_bsp.a(alt_dev_llist_insert.o)
 .debug_line    0x000000000000d3b2       0x59 D:/Dev/vhdl/dev/testNIOS/audioVisualisator_bsp/\libucosii_bsp.a(alt_do_ctors.o)
 .debug_line    0x000000000000d40b       0x59 D:/Dev/vhdl/dev/testNIOS/audioVisualisator_bsp/\libucosii_bsp.a(alt_do_dtors.o)
 .debug_line    0x000000000000d464       0xd8 D:/Dev/vhdl/dev/testNIOS/audioVisualisator_bsp/\libucosii_bsp.a(alt_find_dev.o)
 .debug_line    0x000000000000d53c       0x50 D:/Dev/vhdl/dev/testNIOS/audioVisualisator_bsp/\libucosii_bsp.a(alt_icache_flush_all.o)
 .debug_line    0x000000000000d58c      0x153 D:/Dev/vhdl/dev/testNIOS/audioVisualisator_bsp/\libucosii_bsp.a(alt_io_redirect.o)
 .debug_line    0x000000000000d6df      0x164 D:/Dev/vhdl/dev/testNIOS/audioVisualisator_bsp/\libucosii_bsp.a(alt_irq_register.o)
 .debug_line    0x000000000000d843       0x50 D:/Dev/vhdl/dev/testNIOS/audioVisualisator_bsp/\libucosii_bsp.a(alt_irq_vars.o)
 .debug_line    0x000000000000d893      0x14b D:/Dev/vhdl/dev/testNIOS/audioVisualisator_bsp/\libucosii_bsp.a(alt_open.o)
 .debug_line    0x000000000000d9de      0x113 D:/Dev/vhdl/dev/testNIOS/audioVisualisator_bsp/\libucosii_bsp.a(alt_tick.o)
 .debug_line    0x000000000000daf1       0x8d D:/Dev/vhdl/dev/testNIOS/audioVisualisator_bsp/\libucosii_bsp.a(altera_nios2_gen2_irq.o)
 .debug_line    0x000000000000db7e       0x86 D:/Dev/vhdl/dev/testNIOS/audioVisualisator_bsp/\libucosii_bsp.a(os_cpu_a.o)
 .debug_line    0x000000000000dc04      0x1c0 D:/Dev/vhdl/dev/testNIOS/audioVisualisator_bsp/\libucosii_bsp.a(os_cpu_c.o)
 .debug_line    0x000000000000ddc4       0xf4 D:/Dev/vhdl/dev/testNIOS/audioVisualisator_bsp/\libucosii_bsp.a(alt_find_file.o)
 .debug_line    0x000000000000deb8      0x13a D:/Dev/vhdl/dev/testNIOS/audioVisualisator_bsp/\libucosii_bsp.a(alt_get_fd.o)
 .debug_line    0x000000000000dff2       0x81 D:/Dev/vhdl/dev/testNIOS/audioVisualisator_bsp/\libucosii_bsp.a(alt_icache_flush.o)
 .debug_line    0x000000000000e073       0x6b D:/Dev/vhdl/dev/testNIOS/audioVisualisator_bsp/\libucosii_bsp.a(alt_irq_entry.o)
 .debug_line    0x000000000000e0de       0xdc D:/Dev/vhdl/dev/testNIOS/audioVisualisator_bsp/\libucosii_bsp.a(alt_irq_handler.o)
 .debug_line    0x000000000000e1ba       0xb3 D:/Dev/vhdl/dev/testNIOS/audioVisualisator_bsp/\libucosii_bsp.a(alt_exception_entry.o)
 .debug_line    0x000000000000e26d       0xba D:/Dev/vhdl/dev/testNIOS/audioVisualisator_bsp/\libucosii_bsp.a(alt_instruction_exception_entry.o)
 .debug_line    0x000000000000e327       0xe7 d:/dev/vhdl/program/nios2eds/bin/gnu/h-x86_64-mingw32/bin/../lib/gcc/nios2-elf/5.3.0/../../../../../H-x86_64-mingw32/nios2-elf/lib/mhw-mulx\libc.a(lib_a-atexit.o)
 .debug_line    0x000000000000e40e      0x1fc d:/dev/vhdl/program/nios2eds/bin/gnu/h-x86_64-mingw32/bin/../lib/gcc/nios2-elf/5.3.0/../../../../../H-x86_64-mingw32/nios2-elf/lib/mhw-mulx\libc.a(lib_a-exit.o)
 .debug_line    0x000000000000e60a      0x176 d:/dev/vhdl/program/nios2eds/bin/gnu/h-x86_64-mingw32/bin/../lib/gcc/nios2-elf/5.3.0/../../../../../H-x86_64-mingw32/nios2-elf/lib/mhw-mulx\libc.a(lib_a-memcmp.o)
 .debug_line    0x000000000000e780      0x21f d:/dev/vhdl/program/nios2eds/bin/gnu/h-x86_64-mingw32/bin/../lib/gcc/nios2-elf/5.3.0/../../../../../H-x86_64-mingw32/nios2-elf/lib/mhw-mulx\libc.a(lib_a-__atexit.o)
 .debug_line    0x000000000000e99f      0x23a d:/dev/vhdl/program/nios2eds/bin/gnu/h-x86_64-mingw32/bin/../lib/gcc/nios2-elf/5.3.0/../../../../../H-x86_64-mingw32/nios2-elf/lib/mhw-mulx\libc.a(lib_a-__call_atexit.o)
 .debug_line    0x000000000000ebd9       0xe2 D:/Dev/vhdl/dev/testNIOS/audioVisualisator_bsp/\libucosii_bsp.a(alt_exit.o)

.debug_frame    0x0000000000000000     0x3bb8
 *(.debug_frame)
 .debug_frame   0x0000000000000000       0x84 obj/default/hello_ucosii.o
 .debug_frame   0x0000000000000084       0x5c obj/default/src/Audio.o
 .debug_frame   0x00000000000000e0       0x84 obj/default/src/Display.o
 .debug_frame   0x0000000000000164       0x30 d:/dev/vhdl/program/nios2eds/bin/gnu/h-x86_64-mingw32/bin/../lib/gcc/nios2-elf/5.3.0/../../../../../H-x86_64-mingw32/nios2-elf/lib/mhw-mulx\libc.a(lib_a-malloc.o)
 .debug_frame   0x0000000000000194       0x54 d:/dev/vhdl/program/nios2eds/bin/gnu/h-x86_64-mingw32/bin/../lib/gcc/nios2-elf/5.3.0/../../../../../H-x86_64-mingw32/nios2-elf/lib/mhw-mulx\libc.a(lib_a-mallocr.o)
 .debug_frame   0x00000000000001e8       0x48 d:/dev/vhdl/program/nios2eds/bin/gnu/h-x86_64-mingw32/bin/../lib/gcc/nios2-elf/5.3.0/../../../../../H-x86_64-mingw32/nios2-elf/lib/mhw-mulx\libc.a(lib_a-printf.o)
 .debug_frame   0x0000000000000230       0x30 d:/dev/vhdl/program/nios2eds/bin/gnu/h-x86_64-mingw32/bin/../lib/gcc/nios2-elf/5.3.0/../../../../../H-x86_64-mingw32/nios2-elf/lib/mhw-mulx\libc.a(lib_a-rand.o)
 .debug_frame   0x0000000000000260       0x38 d:/dev/vhdl/program/nios2eds/bin/gnu/h-x86_64-mingw32/bin/../lib/gcc/nios2-elf/5.3.0/../../../../../H-x86_64-mingw32/nios2-elf/lib/mhw-mulx\libc.a(lib_a-sbrkr.o)
 .debug_frame   0x0000000000000298       0x98 d:/dev/vhdl/program/nios2eds/bin/gnu/h-x86_64-mingw32/bin/../lib/gcc/nios2-elf/5.3.0/../../../../../H-x86_64-mingw32/nios2-elf/lib/mhw-mulx\libc.a(lib_a-vfprintf.o)
 .debug_frame   0x0000000000000330       0x38 d:/dev/vhdl/program/nios2eds/bin/gnu/h-x86_64-mingw32/bin/../lib/gcc/nios2-elf/5.3.0/../../../../../H-x86_64-mingw32/nios2-elf/lib/mhw-mulx\libc.a(lib_a-wsetup.o)
 .debug_frame   0x0000000000000368       0x98 d:/dev/vhdl/program/nios2eds/bin/gnu/h-x86_64-mingw32/bin/../lib/gcc/nios2-elf/5.3.0/../../../../../H-x86_64-mingw32/nios2-elf/lib/mhw-mulx\libc.a(lib_a-dtoa.o)
 .debug_frame   0x0000000000000400       0x7c d:/dev/vhdl/program/nios2eds/bin/gnu/h-x86_64-mingw32/bin/../lib/gcc/nios2-elf/5.3.0/../../../../../H-x86_64-mingw32/nios2-elf/lib/mhw-mulx\libc.a(lib_a-fflush.o)
 .debug_frame   0x000000000000047c      0x160 d:/dev/vhdl/program/nios2eds/bin/gnu/h-x86_64-mingw32/bin/../lib/gcc/nios2-elf/5.3.0/../../../../../H-x86_64-mingw32/nios2-elf/lib/mhw-mulx\libc.a(lib_a-findfp.o)
 .debug_frame   0x00000000000005dc       0x70 d:/dev/vhdl/program/nios2eds/bin/gnu/h-x86_64-mingw32/bin/../lib/gcc/nios2-elf/5.3.0/../../../../../H-x86_64-mingw32/nios2-elf/lib/mhw-mulx\libc.a(lib_a-freer.o)
 .debug_frame   0x000000000000064c       0x90 d:/dev/vhdl/program/nios2eds/bin/gnu/h-x86_64-mingw32/bin/../lib/gcc/nios2-elf/5.3.0/../../../../../H-x86_64-mingw32/nios2-elf/lib/mhw-mulx\libc.a(lib_a-fwalk.o)
 .debug_frame   0x00000000000006dc       0xa8 d:/dev/vhdl/program/nios2eds/bin/gnu/h-x86_64-mingw32/bin/../lib/gcc/nios2-elf/5.3.0/../../../../../H-x86_64-mingw32/nios2-elf/lib/mhw-mulx\libc.a(lib_a-locale.o)
 .debug_frame   0x0000000000000784       0x4c d:/dev/vhdl/program/nios2eds/bin/gnu/h-x86_64-mingw32/bin/../lib/gcc/nios2-elf/5.3.0/../../../../../H-x86_64-mingw32/nios2-elf/lib/mhw-mulx\libc.a(lib_a-makebuf.o)
 .debug_frame   0x00000000000007d0       0x20 d:/dev/vhdl/program/nios2eds/bin/gnu/h-x86_64-mingw32/bin/../lib/gcc/nios2-elf/5.3.0/../../../../../H-x86_64-mingw32/nios2-elf/lib/mhw-mulx\libc.a(lib_a-memchr.o)
 .debug_frame   0x00000000000007f0       0x38 d:/dev/vhdl/program/nios2eds/bin/gnu/h-x86_64-mingw32/bin/../lib/gcc/nios2-elf/5.3.0/../../../../../H-x86_64-mingw32/nios2-elf/lib/mhw-mulx\libc.a(lib_a-memcpy.o)
 .debug_frame   0x0000000000000828       0x20 d:/dev/vhdl/program/nios2eds/bin/gnu/h-x86_64-mingw32/bin/../lib/gcc/nios2-elf/5.3.0/../../../../../H-x86_64-mingw32/nios2-elf/lib/mhw-mulx\libc.a(lib_a-memset.o)
 .debug_frame   0x0000000000000848      0x2e0 d:/dev/vhdl/program/nios2eds/bin/gnu/h-x86_64-mingw32/bin/../lib/gcc/nios2-elf/5.3.0/../../../../../H-x86_64-mingw32/nios2-elf/lib/mhw-mulx\libc.a(lib_a-mprec.o)
 .debug_frame   0x0000000000000b28       0x20 d:/dev/vhdl/program/nios2eds/bin/gnu/h-x86_64-mingw32/bin/../lib/gcc/nios2-elf/5.3.0/../../../../../H-x86_64-mingw32/nios2-elf/lib/mhw-mulx\libc.a(lib_a-s_fpclassify.o)
 .debug_frame   0x0000000000000b48       0xb4 d:/dev/vhdl/program/nios2eds/bin/gnu/h-x86_64-mingw32/bin/../lib/gcc/nios2-elf/5.3.0/../../../../../H-x86_64-mingw32/nios2-elf/lib/mhw-mulx\libc.a(lib_a-stdio.o)
 .debug_frame   0x0000000000000bfc       0x20 d:/dev/vhdl/program/nios2eds/bin/gnu/h-x86_64-mingw32/bin/../lib/gcc/nios2-elf/5.3.0/../../../../../H-x86_64-mingw32/nios2-elf/lib/mhw-mulx\libc.a(lib_a-strcmp.o)
 .debug_frame   0x0000000000000c1c       0x20 d:/dev/vhdl/program/nios2eds/bin/gnu/h-x86_64-mingw32/bin/../lib/gcc/nios2-elf/5.3.0/../../../../../H-x86_64-mingw32/nios2-elf/lib/mhw-mulx\libc.a(lib_a-strlen.o)
 .debug_frame   0x0000000000000c3c       0xec d:/dev/vhdl/program/nios2eds/bin/gnu/h-x86_64-mingw32/bin/../lib/gcc/nios2-elf/5.3.0/../../../../../H-x86_64-mingw32/nios2-elf/lib/mhw-mulx\libc.a(lib_a-vfiprintf.o)
 .debug_frame   0x0000000000000d28       0x38 d:/dev/vhdl/program/nios2eds/bin/gnu/h-x86_64-mingw32/bin/../lib/gcc/nios2-elf/5.3.0/../../../../../H-x86_64-mingw32/nios2-elf/lib/mhw-mulx\libc.a(lib_a-writer.o)
 .debug_frame   0x0000000000000d60       0x38 d:/dev/vhdl/program/nios2eds/bin/gnu/h-x86_64-mingw32/bin/../lib/gcc/nios2-elf/5.3.0/../../../../../H-x86_64-mingw32/nios2-elf/lib/mhw-mulx\libc.a(closer.o)
 .debug_frame   0x0000000000000d98       0x40 d:/dev/vhdl/program/nios2eds/bin/gnu/h-x86_64-mingw32/bin/../lib/gcc/nios2-elf/5.3.0/../../../../../H-x86_64-mingw32/nios2-elf/lib/mhw-mulx\libc.a(lib_a-callocr.o)
 .debug_frame   0x0000000000000dd8       0x54 d:/dev/vhdl/program/nios2eds/bin/gnu/h-x86_64-mingw32/bin/../lib/gcc/nios2-elf/5.3.0/../../../../../H-x86_64-mingw32/nios2-elf/lib/mhw-mulx\libc.a(lib_a-fclose.o)
 .debug_frame   0x0000000000000e2c       0x80 d:/dev/vhdl/program/nios2eds/bin/gnu/h-x86_64-mingw32/bin/../lib/gcc/nios2-elf/5.3.0/../../../../../H-x86_64-mingw32/nios2-elf/lib/mhw-mulx\libc.a(lib_a-fputwc.o)
 .debug_frame   0x0000000000000eac       0x38 d:/dev/vhdl/program/nios2eds/bin/gnu/h-x86_64-mingw32/bin/../lib/gcc/nios2-elf/5.3.0/../../../../../H-x86_64-mingw32/nios2-elf/lib/mhw-mulx\libc.a(lib_a-fstatr.o)
 .debug_frame   0x0000000000000ee4       0x78 d:/dev/vhdl/program/nios2eds/bin/gnu/h-x86_64-mingw32/bin/../lib/gcc/nios2-elf/5.3.0/../../../../../H-x86_64-mingw32/nios2-elf/lib/mhw-mulx\libc.a(lib_a-fvwrite.o)
 .debug_frame   0x0000000000000f5c       0x38 d:/dev/vhdl/program/nios2eds/bin/gnu/h-x86_64-mingw32/bin/../lib/gcc/nios2-elf/5.3.0/../../../../../H-x86_64-mingw32/nios2-elf/lib/mhw-mulx\libc.a(lib_a-isattyr.o)
 .debug_frame   0x0000000000000f94       0x38 d:/dev/vhdl/program/nios2eds/bin/gnu/h-x86_64-mingw32/bin/../lib/gcc/nios2-elf/5.3.0/../../../../../H-x86_64-mingw32/nios2-elf/lib/mhw-mulx\libc.a(lib_a-lseekr.o)
 .debug_frame   0x0000000000000fcc       0x20 d:/dev/vhdl/program/nios2eds/bin/gnu/h-x86_64-mingw32/bin/../lib/gcc/nios2-elf/5.3.0/../../../../../H-x86_64-mingw32/nios2-elf/lib/mhw-mulx\libc.a(lib_a-memmove.o)
 .debug_frame   0x0000000000000fec       0x38 d:/dev/vhdl/program/nios2eds/bin/gnu/h-x86_64-mingw32/bin/../lib/gcc/nios2-elf/5.3.0/../../../../../H-x86_64-mingw32/nios2-elf/lib/mhw-mulx\libc.a(lib_a-readr.o)
 .debug_frame   0x0000000000001024       0x70 d:/dev/vhdl/program/nios2eds/bin/gnu/h-x86_64-mingw32/bin/../lib/gcc/nios2-elf/5.3.0/../../../../../H-x86_64-mingw32/nios2-elf/lib/mhw-mulx\libc.a(lib_a-reallocr.o)
 .debug_frame   0x0000000000001094       0x50 d:/dev/vhdl/program/nios2eds/bin/gnu/h-x86_64-mingw32/bin/../lib/gcc/nios2-elf/5.3.0/../../../../../H-x86_64-mingw32/nios2-elf/lib/mhw-mulx\libc.a(lib_a-wbuf.o)
 .debug_frame   0x00000000000010e4       0x70 d:/dev/vhdl/program/nios2eds/bin/gnu/h-x86_64-mingw32/bin/../lib/gcc/nios2-elf/5.3.0/../../../../../H-x86_64-mingw32/nios2-elf/lib/mhw-mulx\libc.a(lib_a-wcrtomb.o)
 .debug_frame   0x0000000000001154       0x44 d:/dev/vhdl/program/nios2eds/bin/gnu/h-x86_64-mingw32/bin/../lib/gcc/nios2-elf/5.3.0/../../../../../H-x86_64-mingw32/nios2-elf/lib/mhw-mulx\libc.a(lib_a-wctomb_r.o)
 .debug_frame   0x0000000000001198       0x54 d:/dev/vhdl/program/nios2eds/bin/gnu/h-x86_64-mingw32/bin/../lib/gcc/nios2-elf/5.3.0/mhw-mulx\libgcc.a(_udivdi3.o)
 .debug_frame   0x00000000000011ec       0x54 d:/dev/vhdl/program/nios2eds/bin/gnu/h-x86_64-mingw32/bin/../lib/gcc/nios2-elf/5.3.0/mhw-mulx\libgcc.a(_umoddi3.o)
 .debug_frame   0x0000000000001240       0x50 d:/dev/vhdl/program/nios2eds/bin/gnu/h-x86_64-mingw32/bin/../lib/gcc/nios2-elf/5.3.0/mhw-mulx\libgcc.a(lib2-divmod.o)
 .debug_frame   0x0000000000001290       0x40 d:/dev/vhdl/program/nios2eds/bin/gnu/h-x86_64-mingw32/bin/../lib/gcc/nios2-elf/5.3.0/mhw-mulx\libgcc.a(adddf3.o)
 .debug_frame   0x00000000000012d0       0x58 d:/dev/vhdl/program/nios2eds/bin/gnu/h-x86_64-mingw32/bin/../lib/gcc/nios2-elf/5.3.0/mhw-mulx\libgcc.a(divdf3.o)
 .debug_frame   0x0000000000001328       0x20 d:/dev/vhdl/program/nios2eds/bin/gnu/h-x86_64-mingw32/bin/../lib/gcc/nios2-elf/5.3.0/mhw-mulx\libgcc.a(eqdf2.o)
 .debug_frame   0x0000000000001348       0x20 d:/dev/vhdl/program/nios2eds/bin/gnu/h-x86_64-mingw32/bin/../lib/gcc/nios2-elf/5.3.0/mhw-mulx\libgcc.a(gedf2.o)
 .debug_frame   0x0000000000001368       0x20 d:/dev/vhdl/program/nios2eds/bin/gnu/h-x86_64-mingw32/bin/../lib/gcc/nios2-elf/5.3.0/mhw-mulx\libgcc.a(ledf2.o)
 .debug_frame   0x0000000000001388       0x58 d:/dev/vhdl/program/nios2eds/bin/gnu/h-x86_64-mingw32/bin/../lib/gcc/nios2-elf/5.3.0/mhw-mulx\libgcc.a(muldf3.o)
 .debug_frame   0x00000000000013e0       0x44 d:/dev/vhdl/program/nios2eds/bin/gnu/h-x86_64-mingw32/bin/../lib/gcc/nios2-elf/5.3.0/mhw-mulx\libgcc.a(subdf3.o)
 .debug_frame   0x0000000000001424       0x20 d:/dev/vhdl/program/nios2eds/bin/gnu/h-x86_64-mingw32/bin/../lib/gcc/nios2-elf/5.3.0/mhw-mulx\libgcc.a(fixdfsi.o)
 .debug_frame   0x0000000000001444       0x38 d:/dev/vhdl/program/nios2eds/bin/gnu/h-x86_64-mingw32/bin/../lib/gcc/nios2-elf/5.3.0/mhw-mulx\libgcc.a(floatsidf.o)
 .debug_frame   0x000000000000147c       0x34 d:/dev/vhdl/program/nios2eds/bin/gnu/h-x86_64-mingw32/bin/../lib/gcc/nios2-elf/5.3.0/mhw-mulx\libgcc.a(floatunsidf.o)
 .debug_frame   0x00000000000014b0       0x20 d:/dev/vhdl/program/nios2eds/bin/gnu/h-x86_64-mingw32/bin/../lib/gcc/nios2-elf/5.3.0/mhw-mulx\libgcc.a(_clzsi2.o)
 .debug_frame   0x00000000000014d0       0x60 D:/Dev/vhdl/dev/testNIOS/audioVisualisator_bsp/\libucosii_bsp.a(alt_close.o)
 .debug_frame   0x0000000000001530       0x34 D:/Dev/vhdl/dev/testNIOS/audioVisualisator_bsp/\libucosii_bsp.a(alt_dev.o)
 .debug_frame   0x0000000000001564       0x60 D:/Dev/vhdl/dev/testNIOS/audioVisualisator_bsp/\libucosii_bsp.a(alt_fstat.o)
 .debug_frame   0x00000000000015c4       0x60 D:/Dev/vhdl/dev/testNIOS/audioVisualisator_bsp/\libucosii_bsp.a(alt_isatty.o)
 .debug_frame   0x0000000000001624       0x5c D:/Dev/vhdl/dev/testNIOS/audioVisualisator_bsp/\libucosii_bsp.a(alt_load.o)
 .debug_frame   0x0000000000001680       0x60 D:/Dev/vhdl/dev/testNIOS/audioVisualisator_bsp/\libucosii_bsp.a(alt_lseek.o)
 .debug_frame   0x00000000000016e0       0x2c D:/Dev/vhdl/dev/testNIOS/audioVisualisator_bsp/\libucosii_bsp.a(alt_main.o)
 .debug_frame   0x000000000000170c       0x60 D:/Dev/vhdl/dev/testNIOS/audioVisualisator_bsp/\libucosii_bsp.a(alt_read.o)
 .debug_frame   0x000000000000176c       0x34 D:/Dev/vhdl/dev/testNIOS/audioVisualisator_bsp/\libucosii_bsp.a(alt_release_fd.o)
 .debug_frame   0x00000000000017a0       0x34 D:/Dev/vhdl/dev/testNIOS/audioVisualisator_bsp/\libucosii_bsp.a(alt_sbrk.o)
 .debug_frame   0x00000000000017d4       0x60 D:/Dev/vhdl/dev/testNIOS/audioVisualisator_bsp/\libucosii_bsp.a(alt_write.o)
 .debug_frame   0x0000000000001834       0x60 D:/Dev/vhdl/dev/testNIOS/audioVisualisator_bsp/\libucosii_bsp.a(alt_env_lock.o)
 .debug_frame   0x0000000000001894       0x64 D:/Dev/vhdl/dev/testNIOS/audioVisualisator_bsp/\libucosii_bsp.a(alt_malloc_lock.o)
 .debug_frame   0x00000000000018f8      0x534 D:/Dev/vhdl/dev/testNIOS/audioVisualisator_bsp/\libucosii_bsp.a(os_core.o)
 .debug_frame   0x0000000000001e2c       0x34 D:/Dev/vhdl/dev/testNIOS/audioVisualisator_bsp/\libucosii_bsp.a(os_dbg.o)
 .debug_frame   0x0000000000001e60      0x200 D:/Dev/vhdl/dev/testNIOS/audioVisualisator_bsp/\libucosii_bsp.a(os_flag.o)
 .debug_frame   0x0000000000002060      0x118 D:/Dev/vhdl/dev/testNIOS/audioVisualisator_bsp/\libucosii_bsp.a(os_mem.o)
 .debug_frame   0x0000000000002178      0x1bc D:/Dev/vhdl/dev/testNIOS/audioVisualisator_bsp/\libucosii_bsp.a(os_q.o)
 .debug_frame   0x0000000000002334      0x144 D:/Dev/vhdl/dev/testNIOS/audioVisualisator_bsp/\libucosii_bsp.a(os_sem.o)
 .debug_frame   0x0000000000002478      0x1e4 D:/Dev/vhdl/dev/testNIOS/audioVisualisator_bsp/\libucosii_bsp.a(os_task.o)
 .debug_frame   0x000000000000265c       0xd0 D:/Dev/vhdl/dev/testNIOS/audioVisualisator_bsp/\libucosii_bsp.a(os_time.o)
 .debug_frame   0x000000000000272c       0x88 D:/Dev/vhdl/dev/testNIOS/audioVisualisator_bsp/\libucosii_bsp.a(alt_sys_init.o)
 .debug_frame   0x00000000000027b4       0xb0 D:/Dev/vhdl/dev/testNIOS/audioVisualisator_bsp/\libucosii_bsp.a(altera_avalon_jtag_uart_fd.o)
 .debug_frame   0x0000000000002864       0xac D:/Dev/vhdl/dev/testNIOS/audioVisualisator_bsp/\libucosii_bsp.a(altera_avalon_jtag_uart_init.o)
 .debug_frame   0x0000000000002910       0x34 D:/Dev/vhdl/dev/testNIOS/audioVisualisator_bsp/\libucosii_bsp.a(altera_avalon_jtag_uart_ioctl.o)
 .debug_frame   0x0000000000002944       0x38 D:/Dev/vhdl/dev/testNIOS/audioVisualisator_bsp/\libucosii_bsp.a(altera_avalon_jtag_uart_read.o)
 .debug_frame   0x000000000000297c       0x38 D:/Dev/vhdl/dev/testNIOS/audioVisualisator_bsp/\libucosii_bsp.a(altera_avalon_jtag_uart_write.o)
 .debug_frame   0x00000000000029b4       0x60 D:/Dev/vhdl/dev/testNIOS/audioVisualisator_bsp/\libucosii_bsp.a(altera_avalon_timer_sc.o)
 .debug_frame   0x0000000000002a14      0x2ac D:/Dev/vhdl/dev/testNIOS/audioVisualisator_bsp/\libucosii_bsp.a(altera_up_avalon_audio.o)
 .debug_frame   0x0000000000002cc0      0x204 D:/Dev/vhdl/dev/testNIOS/audioVisualisator_bsp/\libucosii_bsp.a(altera_up_avalon_character_lcd.o)
 .debug_frame   0x0000000000002ec4      0x188 D:/Dev/vhdl/dev/testNIOS/audioVisualisator_bsp/\libucosii_bsp.a(altera_up_avalon_irda.o)
 .debug_frame   0x000000000000304c      0x2c0 D:/Dev/vhdl/dev/testNIOS/audioVisualisator_bsp/\libucosii_bsp.a(altera_up_avalon_ps2.o)
 .debug_frame   0x000000000000330c      0x188 D:/Dev/vhdl/dev/testNIOS/audioVisualisator_bsp/\libucosii_bsp.a(altera_up_avalon_rs232.o)
 .debug_frame   0x0000000000003494       0x34 D:/Dev/vhdl/dev/testNIOS/audioVisualisator_bsp/\libucosii_bsp.a(alt_alarm_start.o)
 .debug_frame   0x00000000000034c8       0x34 D:/Dev/vhdl/dev/testNIOS/audioVisualisator_bsp/\libucosii_bsp.a(alt_dcache_flush_all.o)
 .debug_frame   0x00000000000034fc       0x60 D:/Dev/vhdl/dev/testNIOS/audioVisualisator_bsp/\libucosii_bsp.a(alt_dev_llist_insert.o)
 .debug_frame   0x000000000000355c       0x38 D:/Dev/vhdl/dev/testNIOS/audioVisualisator_bsp/\libucosii_bsp.a(alt_do_ctors.o)
 .debug_frame   0x0000000000003594       0x38 D:/Dev/vhdl/dev/testNIOS/audioVisualisator_bsp/\libucosii_bsp.a(alt_do_dtors.o)
 .debug_frame   0x00000000000035cc       0x38 D:/Dev/vhdl/dev/testNIOS/audioVisualisator_bsp/\libucosii_bsp.a(alt_find_dev.o)
 .debug_frame   0x0000000000003604       0x38 D:/Dev/vhdl/dev/testNIOS/audioVisualisator_bsp/\libucosii_bsp.a(alt_icache_flush_all.o)
 .debug_frame   0x000000000000363c       0x60 D:/Dev/vhdl/dev/testNIOS/audioVisualisator_bsp/\libucosii_bsp.a(alt_io_redirect.o)
 .debug_frame   0x000000000000369c       0x34 D:/Dev/vhdl/dev/testNIOS/audioVisualisator_bsp/\libucosii_bsp.a(alt_irq_register.o)
 .debug_frame   0x00000000000036d0       0x84 D:/Dev/vhdl/dev/testNIOS/audioVisualisator_bsp/\libucosii_bsp.a(alt_open.o)
 .debug_frame   0x0000000000003754       0x5c D:/Dev/vhdl/dev/testNIOS/audioVisualisator_bsp/\libucosii_bsp.a(alt_tick.o)
 .debug_frame   0x00000000000037b0       0x34 D:/Dev/vhdl/dev/testNIOS/audioVisualisator_bsp/\libucosii_bsp.a(altera_nios2_gen2_irq.o)
 .debug_frame   0x00000000000037e4      0x17c D:/Dev/vhdl/dev/testNIOS/audioVisualisator_bsp/\libucosii_bsp.a(os_cpu_c.o)
 .debug_frame   0x0000000000003960       0x38 D:/Dev/vhdl/dev/testNIOS/audioVisualisator_bsp/\libucosii_bsp.a(alt_find_file.o)
 .debug_frame   0x0000000000003998       0x38 D:/Dev/vhdl/dev/testNIOS/audioVisualisator_bsp/\libucosii_bsp.a(alt_get_fd.o)
 .debug_frame   0x00000000000039d0       0x34 D:/Dev/vhdl/dev/testNIOS/audioVisualisator_bsp/\libucosii_bsp.a(alt_icache_flush.o)
 .debug_frame   0x0000000000003a04       0x38 D:/Dev/vhdl/dev/testNIOS/audioVisualisator_bsp/\libucosii_bsp.a(alt_irq_handler.o)
 .debug_frame   0x0000000000003a3c       0x5c D:/Dev/vhdl/dev/testNIOS/audioVisualisator_bsp/\libucosii_bsp.a(alt_instruction_exception_entry.o)
 .debug_frame   0x0000000000003a98       0x20 d:/dev/vhdl/program/nios2eds/bin/gnu/h-x86_64-mingw32/bin/../lib/gcc/nios2-elf/5.3.0/../../../../../H-x86_64-mingw32/nios2-elf/lib/mhw-mulx\libc.a(lib_a-atexit.o)
 .debug_frame   0x0000000000003ab8       0x28 d:/dev/vhdl/program/nios2eds/bin/gnu/h-x86_64-mingw32/bin/../lib/gcc/nios2-elf/5.3.0/../../../../../H-x86_64-mingw32/nios2-elf/lib/mhw-mulx\libc.a(lib_a-exit.o)
 .debug_frame   0x0000000000003ae0       0x20 d:/dev/vhdl/program/nios2eds/bin/gnu/h-x86_64-mingw32/bin/../lib/gcc/nios2-elf/5.3.0/../../../../../H-x86_64-mingw32/nios2-elf/lib/mhw-mulx\libc.a(lib_a-memcmp.o)
 .debug_frame   0x0000000000003b00       0x38 d:/dev/vhdl/program/nios2eds/bin/gnu/h-x86_64-mingw32/bin/../lib/gcc/nios2-elf/5.3.0/../../../../../H-x86_64-mingw32/nios2-elf/lib/mhw-mulx\libc.a(lib_a-__atexit.o)
 .debug_frame   0x0000000000003b38       0x54 d:/dev/vhdl/program/nios2eds/bin/gnu/h-x86_64-mingw32/bin/../lib/gcc/nios2-elf/5.3.0/../../../../../H-x86_64-mingw32/nios2-elf/lib/mhw-mulx\libc.a(lib_a-__call_atexit.o)
 .debug_frame   0x0000000000003b8c       0x2c D:/Dev/vhdl/dev/testNIOS/audioVisualisator_bsp/\libucosii_bsp.a(alt_exit.o)

.debug_str      0x0000000000000000     0x5671
 *(.debug_str)
 .debug_str     0x0000000000000000      0x20f obj/default/hello_ucosii.o
                                        0x292 (size before relaxing)
 .debug_str     0x000000000000020f       0x37 obj/default/src/Audio.o
                                        0x1ba (size before relaxing)
 .debug_str     0x0000000000000246       0x68 obj/default/src/Display.o
                                        0x1ec (size before relaxing)
 .debug_str     0x00000000000002ae      0x48f d:/dev/vhdl/program/nios2eds/bin/gnu/h-x86_64-mingw32/bin/../lib/gcc/nios2-elf/5.3.0/../../../../../H-x86_64-mingw32/nios2-elf/lib/mhw-mulx\libc.a(lib_a-malloc.o)
                                        0x5c5 (size before relaxing)
 .debug_str     0x000000000000073d      0x226 d:/dev/vhdl/program/nios2eds/bin/gnu/h-x86_64-mingw32/bin/../lib/gcc/nios2-elf/5.3.0/../../../../../H-x86_64-mingw32/nios2-elf/lib/mhw-mulx\libc.a(lib_a-mallocr.o)
                                        0x7b6 (size before relaxing)
 .debug_str     0x0000000000000963      0x11e d:/dev/vhdl/program/nios2eds/bin/gnu/h-x86_64-mingw32/bin/../lib/gcc/nios2-elf/5.3.0/../../../../../H-x86_64-mingw32/nios2-elf/lib/mhw-mulx\libc.a(lib_a-printf.o)
                                        0x5f7 (size before relaxing)
 .debug_str     0x0000000000000a81       0x41 d:/dev/vhdl/program/nios2eds/bin/gnu/h-x86_64-mingw32/bin/../lib/gcc/nios2-elf/5.3.0/../../../../../H-x86_64-mingw32/nios2-elf/lib/mhw-mulx\libc.a(lib_a-rand.o)
                                        0x5a8 (size before relaxing)
 .debug_str     0x0000000000000ac2       0xdb d:/dev/vhdl/program/nios2eds/bin/gnu/h-x86_64-mingw32/bin/../lib/gcc/nios2-elf/5.3.0/../../../../../H-x86_64-mingw32/nios2-elf/lib/mhw-mulx\libc.a(lib_a-sbrkr.o)
                                        0x5a7 (size before relaxing)
 .debug_str     0x0000000000000b9d      0x284 d:/dev/vhdl/program/nios2eds/bin/gnu/h-x86_64-mingw32/bin/../lib/gcc/nios2-elf/5.3.0/../../../../../H-x86_64-mingw32/nios2-elf/lib/mhw-mulx\libc.a(lib_a-vfprintf.o)
                                        0x839 (size before relaxing)
 .debug_str     0x0000000000000e21       0x49 d:/dev/vhdl/program/nios2eds/bin/gnu/h-x86_64-mingw32/bin/../lib/gcc/nios2-elf/5.3.0/../../../../../H-x86_64-mingw32/nios2-elf/lib/mhw-mulx\libc.a(lib_a-wsetup.o)
                                        0x5d0 (size before relaxing)
 .debug_str     0x0000000000000e6a      0x160 d:/dev/vhdl/program/nios2eds/bin/gnu/h-x86_64-mingw32/bin/../lib/gcc/nios2-elf/5.3.0/../../../../../H-x86_64-mingw32/nios2-elf/lib/mhw-mulx\libc.a(lib_a-dtoa.o)
                                        0x6f0 (size before relaxing)
 .debug_str     0x0000000000000fca       0x7f d:/dev/vhdl/program/nios2eds/bin/gnu/h-x86_64-mingw32/bin/../lib/gcc/nios2-elf/5.3.0/../../../../../H-x86_64-mingw32/nios2-elf/lib/mhw-mulx\libc.a(lib_a-fflush.o)
                                        0x611 (size before relaxing)
 .debug_str     0x0000000000001049      0x11c d:/dev/vhdl/program/nios2eds/bin/gnu/h-x86_64-mingw32/bin/../lib/gcc/nios2-elf/5.3.0/../../../../../H-x86_64-mingw32/nios2-elf/lib/mhw-mulx\libc.a(lib_a-findfp.o)
                                        0x6c7 (size before relaxing)
 .debug_str     0x0000000000001165       0x34 d:/dev/vhdl/program/nios2eds/bin/gnu/h-x86_64-mingw32/bin/../lib/gcc/nios2-elf/5.3.0/../../../../../H-x86_64-mingw32/nios2-elf/lib/mhw-mulx\libc.a(lib_a-freer.o)
                                        0x700 (size before relaxing)
 .debug_str     0x0000000000001199       0x4a d:/dev/vhdl/program/nios2eds/bin/gnu/h-x86_64-mingw32/bin/../lib/gcc/nios2-elf/5.3.0/../../../../../H-x86_64-mingw32/nios2-elf/lib/mhw-mulx\libc.a(lib_a-fwalk.o)
                                        0x5b6 (size before relaxing)
 .debug_str     0x00000000000011e3       0x48 d:/dev/vhdl/program/nios2eds/bin/gnu/h-x86_64-mingw32/bin/../lib/gcc/nios2-elf/5.3.0/../../../../../H-x86_64-mingw32/nios2-elf/lib/mhw-mulx\libc.a(lib_a-impure.o)
                                        0x5b1 (size before relaxing)
 .debug_str     0x000000000000122b       0x3f d:/dev/vhdl/program/nios2eds/bin/gnu/h-x86_64-mingw32/bin/../lib/gcc/nios2-elf/5.3.0/../../../../../H-x86_64-mingw32/nios2-elf/lib/mhw-mulx\libc.a(lib_a-int_errno.o)
                                        0x1d9 (size before relaxing)
 .debug_str     0x000000000000126a      0x29e d:/dev/vhdl/program/nios2eds/bin/gnu/h-x86_64-mingw32/bin/../lib/gcc/nios2-elf/5.3.0/../../../../../H-x86_64-mingw32/nios2-elf/lib/mhw-mulx\libc.a(lib_a-locale.o)
                                        0x80e (size before relaxing)
 .debug_str     0x0000000000001508      0x124 d:/dev/vhdl/program/nios2eds/bin/gnu/h-x86_64-mingw32/bin/../lib/gcc/nios2-elf/5.3.0/../../../../../H-x86_64-mingw32/nios2-elf/lib/mhw-mulx\libc.a(lib_a-makebuf.o)
                                        0x6b3 (size before relaxing)
 .debug_str     0x000000000000162c       0xd8 d:/dev/vhdl/program/nios2eds/bin/gnu/h-x86_64-mingw32/bin/../lib/gcc/nios2-elf/5.3.0/../../../../../H-x86_64-mingw32/nios2-elf/lib/mhw-mulx\libc.a(lib_a-memchr.o)
                                        0x1fa (size before relaxing)
 .debug_str     0x0000000000001704       0x64 d:/dev/vhdl/program/nios2eds/bin/gnu/h-x86_64-mingw32/bin/../lib/gcc/nios2-elf/5.3.0/../../../../../H-x86_64-mingw32/nios2-elf/lib/mhw-mulx\libc.a(lib_a-memcpy.o)
                                        0x207 (size before relaxing)
 .debug_str     0x0000000000001768       0x4a d:/dev/vhdl/program/nios2eds/bin/gnu/h-x86_64-mingw32/bin/../lib/gcc/nios2-elf/5.3.0/../../../../../H-x86_64-mingw32/nios2-elf/lib/mhw-mulx\libc.a(lib_a-memset.o)
                                        0x1f4 (size before relaxing)
 .debug_str     0x00000000000017b2       0xa7 d:/dev/vhdl/program/nios2eds/bin/gnu/h-x86_64-mingw32/bin/../lib/gcc/nios2-elf/5.3.0/../../../../../H-x86_64-mingw32/nios2-elf/lib/mhw-mulx\libc.a(lib_a-mprec.o)
                                        0x6aa (size before relaxing)
 .debug_str     0x0000000000001859       0xd0 d:/dev/vhdl/program/nios2eds/bin/gnu/h-x86_64-mingw32/bin/../lib/gcc/nios2-elf/5.3.0/../../../../../H-x86_64-mingw32/nios2-elf/lib/mhw-mulx\libc.a(lib_a-s_fpclassify.o)
                                        0x1fe (size before relaxing)
 .debug_str     0x0000000000001929       0x9b d:/dev/vhdl/program/nios2eds/bin/gnu/h-x86_64-mingw32/bin/../lib/gcc/nios2-elf/5.3.0/../../../../../H-x86_64-mingw32/nios2-elf/lib/mhw-mulx\libc.a(lib_a-stdio.o)
                                        0x605 (size before relaxing)
 .debug_str     0x00000000000019c4       0x3d d:/dev/vhdl/program/nios2eds/bin/gnu/h-x86_64-mingw32/bin/../lib/gcc/nios2-elf/5.3.0/../../../../../H-x86_64-mingw32/nios2-elf/lib/mhw-mulx\libc.a(lib_a-strcmp.o)
                                        0x1d9 (size before relaxing)
 .debug_str     0x0000000000001a01       0x3d d:/dev/vhdl/program/nios2eds/bin/gnu/h-x86_64-mingw32/bin/../lib/gcc/nios2-elf/5.3.0/../../../../../H-x86_64-mingw32/nios2-elf/lib/mhw-mulx\libc.a(lib_a-strlen.o)
                                        0x1f3 (size before relaxing)
 .debug_str     0x0000000000001a3e       0x4c d:/dev/vhdl/program/nios2eds/bin/gnu/h-x86_64-mingw32/bin/../lib/gcc/nios2-elf/5.3.0/../../../../../H-x86_64-mingw32/nios2-elf/lib/mhw-mulx\libc.a(lib_a-vfiprintf.o)
                                        0x78d (size before relaxing)
 .debug_str     0x0000000000001a8a       0x3c d:/dev/vhdl/program/nios2eds/bin/gnu/h-x86_64-mingw32/bin/../lib/gcc/nios2-elf/5.3.0/../../../../../H-x86_64-mingw32/nios2-elf/lib/mhw-mulx\libc.a(lib_a-writer.o)
                                        0x5ab (size before relaxing)
 .debug_str     0x0000000000001ac6       0x3c d:/dev/vhdl/program/nios2eds/bin/gnu/h-x86_64-mingw32/bin/../lib/gcc/nios2-elf/5.3.0/../../../../../H-x86_64-mingw32/nios2-elf/lib/mhw-mulx\libc.a(closer.o)
                                        0x59b (size before relaxing)
 .debug_str     0x0000000000001b02        0xf d:/dev/vhdl/program/nios2eds/bin/gnu/h-x86_64-mingw32/bin/../lib/gcc/nios2-elf/5.3.0/../../../../../H-x86_64-mingw32/nios2-elf/lib/mhw-mulx\libc.a(lib_a-callocr.o)
                                        0x5ea (size before relaxing)
 .debug_str     0x0000000000001b11       0x4d d:/dev/vhdl/program/nios2eds/bin/gnu/h-x86_64-mingw32/bin/../lib/gcc/nios2-elf/5.3.0/../../../../../H-x86_64-mingw32/nios2-elf/lib/mhw-mulx\libc.a(lib_a-fclose.o)
                                        0x5fe (size before relaxing)
 .debug_str     0x0000000000001b5e       0x5a d:/dev/vhdl/program/nios2eds/bin/gnu/h-x86_64-mingw32/bin/../lib/gcc/nios2-elf/5.3.0/../../../../../H-x86_64-mingw32/nios2-elf/lib/mhw-mulx\libc.a(lib_a-fputwc.o)
                                        0x602 (size before relaxing)
 .debug_str     0x0000000000001bb8       0x42 d:/dev/vhdl/program/nios2eds/bin/gnu/h-x86_64-mingw32/bin/../lib/gcc/nios2-elf/5.3.0/../../../../../H-x86_64-mingw32/nios2-elf/lib/mhw-mulx\libc.a(lib_a-fstatr.o)
                                        0x687 (size before relaxing)
 .debug_str     0x0000000000001bfa       0x6e d:/dev/vhdl/program/nios2eds/bin/gnu/h-x86_64-mingw32/bin/../lib/gcc/nios2-elf/5.3.0/../../../../../H-x86_64-mingw32/nios2-elf/lib/mhw-mulx\libc.a(lib_a-fvwrite.o)
                                        0x643 (size before relaxing)
 .debug_str     0x0000000000001c68       0x44 d:/dev/vhdl/program/nios2eds/bin/gnu/h-x86_64-mingw32/bin/../lib/gcc/nios2-elf/5.3.0/../../../../../H-x86_64-mingw32/nios2-elf/lib/mhw-mulx\libc.a(lib_a-isattyr.o)
                                        0x59e (size before relaxing)
 .debug_str     0x0000000000001cac       0x3c d:/dev/vhdl/program/nios2eds/bin/gnu/h-x86_64-mingw32/bin/../lib/gcc/nios2-elf/5.3.0/../../../../../H-x86_64-mingw32/nios2-elf/lib/mhw-mulx\libc.a(lib_a-lseekr.o)
                                        0x5a2 (size before relaxing)
 .debug_str     0x0000000000001ce8       0x47 d:/dev/vhdl/program/nios2eds/bin/gnu/h-x86_64-mingw32/bin/../lib/gcc/nios2-elf/5.3.0/../../../../../H-x86_64-mingw32/nios2-elf/lib/mhw-mulx\libc.a(lib_a-memmove.o)
                                        0x213 (size before relaxing)
 .debug_str     0x0000000000001d2f       0x3b d:/dev/vhdl/program/nios2eds/bin/gnu/h-x86_64-mingw32/bin/../lib/gcc/nios2-elf/5.3.0/../../../../../H-x86_64-mingw32/nios2-elf/lib/mhw-mulx\libc.a(lib_a-readr.o)
                                        0x5a8 (size before relaxing)
 .debug_str     0x0000000000001d6a       0x49 d:/dev/vhdl/program/nios2eds/bin/gnu/h-x86_64-mingw32/bin/../lib/gcc/nios2-elf/5.3.0/../../../../../H-x86_64-mingw32/nios2-elf/lib/mhw-mulx\libc.a(lib_a-reallocr.o)
                                        0x692 (size before relaxing)
 .debug_str     0x0000000000001db3       0x42 d:/dev/vhdl/program/nios2eds/bin/gnu/h-x86_64-mingw32/bin/../lib/gcc/nios2-elf/5.3.0/../../../../../H-x86_64-mingw32/nios2-elf/lib/mhw-mulx\libc.a(lib_a-wbuf.o)
                                        0x5d5 (size before relaxing)
 .debug_str     0x0000000000001df5       0x56 d:/dev/vhdl/program/nios2eds/bin/gnu/h-x86_64-mingw32/bin/../lib/gcc/nios2-elf/5.3.0/../../../../../H-x86_64-mingw32/nios2-elf/lib/mhw-mulx\libc.a(lib_a-wcrtomb.o)
                                        0x5e8 (size before relaxing)
 .debug_str     0x0000000000001e4b       0x5f d:/dev/vhdl/program/nios2eds/bin/gnu/h-x86_64-mingw32/bin/../lib/gcc/nios2-elf/5.3.0/../../../../../H-x86_64-mingw32/nios2-elf/lib/mhw-mulx\libc.a(lib_a-wctomb_r.o)
                                        0x5f1 (size before relaxing)
 .debug_str     0x0000000000001eaa      0x1ff d:/dev/vhdl/program/nios2eds/bin/gnu/h-x86_64-mingw32/bin/../lib/gcc/nios2-elf/5.3.0/mhw-mulx\libgcc.a(_udivdi3.o)
                                        0x298 (size before relaxing)
 .debug_str     0x00000000000020a9        0xa d:/dev/vhdl/program/nios2eds/bin/gnu/h-x86_64-mingw32/bin/../lib/gcc/nios2-elf/5.3.0/mhw-mulx\libgcc.a(_umoddi3.o)
                                        0x298 (size before relaxing)
 .debug_str     0x00000000000020b3       0xfd d:/dev/vhdl/program/nios2eds/bin/gnu/h-x86_64-mingw32/bin/../lib/gcc/nios2-elf/5.3.0/mhw-mulx\libgcc.a(lib2-divmod.o)
                                        0x1ce (size before relaxing)
 .debug_str     0x00000000000021b0      0x119 d:/dev/vhdl/program/nios2eds/bin/gnu/h-x86_64-mingw32/bin/../lib/gcc/nios2-elf/5.3.0/mhw-mulx\libgcc.a(adddf3.o)
                                        0x2a5 (size before relaxing)
 .debug_str     0x00000000000022c9      0x126 d:/dev/vhdl/program/nios2eds/bin/gnu/h-x86_64-mingw32/bin/../lib/gcc/nios2-elf/5.3.0/mhw-mulx\libgcc.a(divdf3.o)
                                        0x35d (size before relaxing)
 .debug_str     0x00000000000023ef       0x37 d:/dev/vhdl/program/nios2eds/bin/gnu/h-x86_64-mingw32/bin/../lib/gcc/nios2-elf/5.3.0/mhw-mulx\libgcc.a(eqdf2.o)
                                        0x20b (size before relaxing)
 .debug_str     0x0000000000002426       0x5b d:/dev/vhdl/program/nios2eds/bin/gnu/h-x86_64-mingw32/bin/../lib/gcc/nios2-elf/5.3.0/mhw-mulx\libgcc.a(gedf2.o)
                                        0x22f (size before relaxing)
 .debug_str     0x0000000000002481       0x37 d:/dev/vhdl/program/nios2eds/bin/gnu/h-x86_64-mingw32/bin/../lib/gcc/nios2-elf/5.3.0/mhw-mulx\libgcc.a(ledf2.o)
                                        0x22f (size before relaxing)
 .debug_str     0x00000000000024b8      0x15e d:/dev/vhdl/program/nios2eds/bin/gnu/h-x86_64-mingw32/bin/../lib/gcc/nios2-elf/5.3.0/mhw-mulx\libgcc.a(muldf3.o)
                                        0x3be (size before relaxing)
 .debug_str     0x0000000000002616       0x39 d:/dev/vhdl/program/nios2eds/bin/gnu/h-x86_64-mingw32/bin/../lib/gcc/nios2-elf/5.3.0/mhw-mulx\libgcc.a(subdf3.o)
                                        0x2a5 (size before relaxing)
 .debug_str     0x000000000000264f       0x4e d:/dev/vhdl/program/nios2eds/bin/gnu/h-x86_64-mingw32/bin/../lib/gcc/nios2-elf/5.3.0/mhw-mulx\libgcc.a(fixdfsi.o)
                                        0x227 (size before relaxing)
 .debug_str     0x000000000000269d       0x6c d:/dev/vhdl/program/nios2eds/bin/gnu/h-x86_64-mingw32/bin/../lib/gcc/nios2-elf/5.3.0/mhw-mulx\libgcc.a(floatsidf.o)
                                        0x23e (size before relaxing)
 .debug_str     0x0000000000002709       0x43 d:/dev/vhdl/program/nios2eds/bin/gnu/h-x86_64-mingw32/bin/../lib/gcc/nios2-elf/5.3.0/mhw-mulx\libgcc.a(floatunsidf.o)
                                        0x23b (size before relaxing)
 .debug_str     0x000000000000274c      0x1df d:/dev/vhdl/program/nios2eds/bin/gnu/h-x86_64-mingw32/bin/../lib/gcc/nios2-elf/5.3.0/mhw-mulx\libgcc.a(_clz.o)
 .debug_str     0x000000000000274c        0x9 d:/dev/vhdl/program/nios2eds/bin/gnu/h-x86_64-mingw32/bin/../lib/gcc/nios2-elf/5.3.0/mhw-mulx\libgcc.a(_clzsi2.o)
                                        0x1fc (size before relaxing)
 .debug_str     0x0000000000002755       0x73 D:/Dev/vhdl/dev/testNIOS/audioVisualisator_bsp/\libucosii_bsp.a(alt_close.o)
                                        0x25e (size before relaxing)
 .debug_str     0x00000000000027c8       0xc4 D:/Dev/vhdl/dev/testNIOS/audioVisualisator_bsp/\libucosii_bsp.a(alt_dev.o)
                                        0x3cc (size before relaxing)
 .debug_str     0x000000000000288c       0x14 D:/Dev/vhdl/dev/testNIOS/audioVisualisator_bsp/\libucosii_bsp.a(alt_errno.o)
                                        0x147 (size before relaxing)
 .debug_str     0x00000000000028a0       0x14 D:/Dev/vhdl/dev/testNIOS/audioVisualisator_bsp/\libucosii_bsp.a(alt_fstat.o)
                                        0x33f (size before relaxing)
 .debug_str     0x00000000000028b4       0x15 D:/Dev/vhdl/dev/testNIOS/audioVisualisator_bsp/\libucosii_bsp.a(alt_isatty.o)
                                        0x347 (size before relaxing)
 .debug_str     0x00000000000028c9       0xe9 D:/Dev/vhdl/dev/testNIOS/audioVisualisator_bsp/\libucosii_bsp.a(alt_load.o)
                                        0x214 (size before relaxing)
 .debug_str     0x00000000000029b2       0x14 D:/Dev/vhdl/dev/testNIOS/audioVisualisator_bsp/\libucosii_bsp.a(alt_lseek.o)
                                        0x264 (size before relaxing)
 .debug_str     0x00000000000029c6       0x5d D:/Dev/vhdl/dev/testNIOS/audioVisualisator_bsp/\libucosii_bsp.a(alt_main.o)
                                        0x283 (size before relaxing)
 .debug_str     0x0000000000002a23       0x13 D:/Dev/vhdl/dev/testNIOS/audioVisualisator_bsp/\libucosii_bsp.a(alt_read.o)
                                        0x34a (size before relaxing)
 .debug_str     0x0000000000002a36       0x28 D:/Dev/vhdl/dev/testNIOS/audioVisualisator_bsp/\libucosii_bsp.a(alt_release_fd.o)
                                        0x248 (size before relaxing)
 .debug_str     0x0000000000002a5e       0x98 D:/Dev/vhdl/dev/testNIOS/audioVisualisator_bsp/\libucosii_bsp.a(alt_sbrk.o)
                                        0x1ff (size before relaxing)
 .debug_str     0x0000000000002af6       0x14 D:/Dev/vhdl/dev/testNIOS/audioVisualisator_bsp/\libucosii_bsp.a(alt_write.o)
                                        0x34b (size before relaxing)
 .debug_str     0x0000000000002b0a      0x246 D:/Dev/vhdl/dev/testNIOS/audioVisualisator_bsp/\libucosii_bsp.a(alt_env_lock.o)
                                        0x7eb (size before relaxing)
 .debug_str     0x0000000000002d50       0x36 D:/Dev/vhdl/dev/testNIOS/audioVisualisator_bsp/\libucosii_bsp.a(alt_malloc_lock.o)
                                        0x84d (size before relaxing)
 .debug_str     0x0000000000002d86      0x536 D:/Dev/vhdl/dev/testNIOS/audioVisualisator_bsp/\libucosii_bsp.a(os_core.o)
                                        0x979 (size before relaxing)
 .debug_str     0x00000000000032bc      0x2e5 D:/Dev/vhdl/dev/testNIOS/audioVisualisator_bsp/\libucosii_bsp.a(os_dbg.o)
                                        0x8e8 (size before relaxing)
 .debug_str     0x00000000000035a1      0x136 D:/Dev/vhdl/dev/testNIOS/audioVisualisator_bsp/\libucosii_bsp.a(os_flag.o)
                                        0x615 (size before relaxing)
 .debug_str     0x00000000000036d7       0xcf D:/Dev/vhdl/dev/testNIOS/audioVisualisator_bsp/\libucosii_bsp.a(os_mem.o)
                                        0x31e (size before relaxing)
 .debug_str     0x00000000000037a6       0xc0 D:/Dev/vhdl/dev/testNIOS/audioVisualisator_bsp/\libucosii_bsp.a(os_q.o)
                                        0x598 (size before relaxing)
 .debug_str     0x0000000000003866       0x77 D:/Dev/vhdl/dev/testNIOS/audioVisualisator_bsp/\libucosii_bsp.a(os_sem.o)
                                        0x521 (size before relaxing)
 .debug_str     0x00000000000038dd      0x118 D:/Dev/vhdl/dev/testNIOS/audioVisualisator_bsp/\libucosii_bsp.a(os_task.o)
                                        0x624 (size before relaxing)
 .debug_str     0x00000000000039f5       0x6d D:/Dev/vhdl/dev/testNIOS/audioVisualisator_bsp/\libucosii_bsp.a(os_time.o)
                                        0x4c4 (size before relaxing)
 .debug_str     0x0000000000003a62      0x52d D:/Dev/vhdl/dev/testNIOS/audioVisualisator_bsp/\libucosii_bsp.a(alt_sys_init.o)
                                        0x87c (size before relaxing)
 .debug_str     0x0000000000003f8f       0xac D:/Dev/vhdl/dev/testNIOS/audioVisualisator_bsp/\libucosii_bsp.a(altera_avalon_jtag_uart_fd.o)
                                        0x4b7 (size before relaxing)
 .debug_str     0x000000000000403b       0xf6 D:/Dev/vhdl/dev/testNIOS/audioVisualisator_bsp/\libucosii_bsp.a(altera_avalon_jtag_uart_init.o)
                                        0x47e (size before relaxing)
 .debug_str     0x0000000000004131       0x4a D:/Dev/vhdl/dev/testNIOS/audioVisualisator_bsp/\libucosii_bsp.a(altera_avalon_jtag_uart_ioctl.o)
                                        0x3a6 (size before relaxing)
 .debug_str     0x000000000000417b       0x63 D:/Dev/vhdl/dev/testNIOS/audioVisualisator_bsp/\libucosii_bsp.a(altera_avalon_jtag_uart_read.o)
                                        0x419 (size before relaxing)
 .debug_str     0x00000000000041de       0x4a D:/Dev/vhdl/dev/testNIOS/audioVisualisator_bsp/\libucosii_bsp.a(altera_avalon_jtag_uart_write.o)
                                        0x41a (size before relaxing)
 .debug_str     0x0000000000004228       0x66 D:/Dev/vhdl/dev/testNIOS/audioVisualisator_bsp/\libucosii_bsp.a(altera_avalon_timer_sc.o)
                                        0x26e (size before relaxing)
 .debug_str     0x000000000000428e      0x24d D:/Dev/vhdl/dev/testNIOS/audioVisualisator_bsp/\libucosii_bsp.a(altera_up_avalon_audio.o)
                                        0x490 (size before relaxing)
 .debug_str     0x00000000000044db      0x1ea D:/Dev/vhdl/dev/testNIOS/audioVisualisator_bsp/\libucosii_bsp.a(altera_up_avalon_character_lcd.o)
                                        0x421 (size before relaxing)
 .debug_str     0x00000000000046c5      0x165 D:/Dev/vhdl/dev/testNIOS/audioVisualisator_bsp/\libucosii_bsp.a(altera_up_avalon_irda.o)
                                        0x3aa (size before relaxing)
 .debug_str     0x000000000000482a      0x1c5 D:/Dev/vhdl/dev/testNIOS/audioVisualisator_bsp/\libucosii_bsp.a(altera_up_avalon_ps2.o)
                                        0x47d (size before relaxing)
 .debug_str     0x00000000000049ef      0x154 D:/Dev/vhdl/dev/testNIOS/audioVisualisator_bsp/\libucosii_bsp.a(altera_up_avalon_rs232.o)
                                        0x3b7 (size before relaxing)
 .debug_str     0x0000000000004b43       0x59 D:/Dev/vhdl/dev/testNIOS/audioVisualisator_bsp/\libucosii_bsp.a(alt_alarm_start.o)
                                        0x2a1 (size before relaxing)
 .debug_str     0x0000000000004b9c       0x34 D:/Dev/vhdl/dev/testNIOS/audioVisualisator_bsp/\libucosii_bsp.a(alt_dcache_flush_all.o)
                                        0x157 (size before relaxing)
 .debug_str     0x0000000000004bd0       0x34 D:/Dev/vhdl/dev/testNIOS/audioVisualisator_bsp/\libucosii_bsp.a(alt_dev_llist_insert.o)
                                        0x1ce (size before relaxing)
 .debug_str     0x0000000000004c04       0x48 D:/Dev/vhdl/dev/testNIOS/audioVisualisator_bsp/\libucosii_bsp.a(alt_do_ctors.o)
                                         0xd2 (size before relaxing)
 .debug_str     0x0000000000004c4c       0x4c D:/Dev/vhdl/dev/testNIOS/audioVisualisator_bsp/\libucosii_bsp.a(alt_do_dtors.o)
                                         0xd1 (size before relaxing)
 .debug_str     0x0000000000004c98       0x24 D:/Dev/vhdl/dev/testNIOS/audioVisualisator_bsp/\libucosii_bsp.a(alt_find_dev.o)
                                        0x23f (size before relaxing)
 .debug_str     0x0000000000004cbc       0x34 D:/Dev/vhdl/dev/testNIOS/audioVisualisator_bsp/\libucosii_bsp.a(alt_icache_flush_all.o)
                                        0x157 (size before relaxing)
 .debug_str     0x0000000000004cf0       0x56 D:/Dev/vhdl/dev/testNIOS/audioVisualisator_bsp/\libucosii_bsp.a(alt_io_redirect.o)
                                        0x369 (size before relaxing)
 .debug_str     0x0000000000004d46       0x70 D:/Dev/vhdl/dev/testNIOS/audioVisualisator_bsp/\libucosii_bsp.a(alt_irq_register.o)
                                        0x232 (size before relaxing)
 .debug_str     0x0000000000004db6       0x17 D:/Dev/vhdl/dev/testNIOS/audioVisualisator_bsp/\libucosii_bsp.a(alt_irq_vars.o)
                                        0x13c (size before relaxing)
 .debug_str     0x0000000000004dcd       0x29 D:/Dev/vhdl/dev/testNIOS/audioVisualisator_bsp/\libucosii_bsp.a(alt_open.o)
                                        0x296 (size before relaxing)
 .debug_str     0x0000000000004df6       0x4a D:/Dev/vhdl/dev/testNIOS/audioVisualisator_bsp/\libucosii_bsp.a(alt_tick.o)
                                        0x282 (size before relaxing)
 .debug_str     0x0000000000004e40       0x3b D:/Dev/vhdl/dev/testNIOS/audioVisualisator_bsp/\libucosii_bsp.a(altera_nios2_gen2_irq.o)
                                        0x187 (size before relaxing)
 .debug_str     0x0000000000004e7b       0xd5 D:/Dev/vhdl/dev/testNIOS/audioVisualisator_bsp/\libucosii_bsp.a(os_cpu_c.o)
                                        0x860 (size before relaxing)
 .debug_str     0x0000000000004f50       0x26 D:/Dev/vhdl/dev/testNIOS/audioVisualisator_bsp/\libucosii_bsp.a(alt_find_file.o)
                                        0x24d (size before relaxing)
 .debug_str     0x0000000000004f76       0x30 D:/Dev/vhdl/dev/testNIOS/audioVisualisator_bsp/\libucosii_bsp.a(alt_get_fd.o)
                                        0x2eb (size before relaxing)
 .debug_str     0x0000000000004fa6       0x2c D:/Dev/vhdl/dev/testNIOS/audioVisualisator_bsp/\libucosii_bsp.a(alt_icache_flush.o)
                                        0x15d (size before relaxing)
 .debug_str     0x0000000000004fd2       0x3a D:/Dev/vhdl/dev/testNIOS/audioVisualisator_bsp/\libucosii_bsp.a(alt_irq_handler.o)
                                        0x1e2 (size before relaxing)
 .debug_str     0x000000000000500c      0x48b D:/Dev/vhdl/dev/testNIOS/audioVisualisator_bsp/\libucosii_bsp.a(alt_instruction_exception_entry.o)
                                        0x5a2 (size before relaxing)
 .debug_str     0x0000000000005497       0x81 d:/dev/vhdl/program/nios2eds/bin/gnu/h-x86_64-mingw32/bin/../lib/gcc/nios2-elf/5.3.0/../../../../../H-x86_64-mingw32/nios2-elf/lib/mhw-mulx\libc.a(lib_a-atexit.o)
                                        0x21d (size before relaxing)
 .debug_str     0x0000000000005518       0x4c d:/dev/vhdl/program/nios2eds/bin/gnu/h-x86_64-mingw32/bin/../lib/gcc/nios2-elf/5.3.0/../../../../../H-x86_64-mingw32/nios2-elf/lib/mhw-mulx\libc.a(lib_a-exit.o)
                                        0x5ba (size before relaxing)
 .debug_str     0x0000000000005564       0x44 d:/dev/vhdl/program/nios2eds/bin/gnu/h-x86_64-mingw32/bin/../lib/gcc/nios2-elf/5.3.0/../../../../../H-x86_64-mingw32/nios2-elf/lib/mhw-mulx\libc.a(lib_a-memcmp.o)
                                        0x1e0 (size before relaxing)
 .debug_str     0x00000000000055a8       0x3f d:/dev/vhdl/program/nios2eds/bin/gnu/h-x86_64-mingw32/bin/../lib/gcc/nios2-elf/5.3.0/../../../../../H-x86_64-mingw32/nios2-elf/lib/mhw-mulx\libc.a(lib_a-__atexit.o)
                                        0x5f2 (size before relaxing)
 .debug_str     0x00000000000055e7       0x60 d:/dev/vhdl/program/nios2eds/bin/gnu/h-x86_64-mingw32/bin/../lib/gcc/nios2-elf/5.3.0/../../../../../H-x86_64-mingw32/nios2-elf/lib/mhw-mulx\libc.a(lib_a-__call_atexit.o)
                                        0x5de (size before relaxing)
 .debug_str     0x0000000000005647       0x2a D:/Dev/vhdl/dev/testNIOS/audioVisualisator_bsp/\libucosii_bsp.a(alt_exit.o)
                                        0x1b6 (size before relaxing)

.debug_loc      0x0000000000000000    0x177a9
 *(.debug_loc)
 .debug_loc     0x0000000000000000       0x58 d:/dev/vhdl/program/nios2eds/bin/gnu/h-x86_64-mingw32/bin/../lib/gcc/nios2-elf/5.3.0/../../../../../H-x86_64-mingw32/nios2-elf/lib/mhw-mulx\libc.a(lib_a-malloc.o)
 .debug_loc     0x0000000000000058      0xb1b d:/dev/vhdl/program/nios2eds/bin/gnu/h-x86_64-mingw32/bin/../lib/gcc/nios2-elf/5.3.0/../../../../../H-x86_64-mingw32/nios2-elf/lib/mhw-mulx\libc.a(lib_a-mallocr.o)
 .debug_loc     0x0000000000000b73       0xd3 d:/dev/vhdl/program/nios2eds/bin/gnu/h-x86_64-mingw32/bin/../lib/gcc/nios2-elf/5.3.0/../../../../../H-x86_64-mingw32/nios2-elf/lib/mhw-mulx\libc.a(lib_a-printf.o)
 .debug_loc     0x0000000000000c46       0x58 d:/dev/vhdl/program/nios2eds/bin/gnu/h-x86_64-mingw32/bin/../lib/gcc/nios2-elf/5.3.0/../../../../../H-x86_64-mingw32/nios2-elf/lib/mhw-mulx\libc.a(lib_a-sbrkr.o)
 .debug_loc     0x0000000000000c9e     0x30cf d:/dev/vhdl/program/nios2eds/bin/gnu/h-x86_64-mingw32/bin/../lib/gcc/nios2-elf/5.3.0/../../../../../H-x86_64-mingw32/nios2-elf/lib/mhw-mulx\libc.a(lib_a-vfprintf.o)
 .debug_loc     0x0000000000003d6d       0xa2 d:/dev/vhdl/program/nios2eds/bin/gnu/h-x86_64-mingw32/bin/../lib/gcc/nios2-elf/5.3.0/../../../../../H-x86_64-mingw32/nios2-elf/lib/mhw-mulx\libc.a(lib_a-wsetup.o)
 .debug_loc     0x0000000000003e0f     0x2855 d:/dev/vhdl/program/nios2eds/bin/gnu/h-x86_64-mingw32/bin/../lib/gcc/nios2-elf/5.3.0/../../../../../H-x86_64-mingw32/nios2-elf/lib/mhw-mulx\libc.a(lib_a-dtoa.o)
 .debug_loc     0x0000000000006664      0x36f d:/dev/vhdl/program/nios2eds/bin/gnu/h-x86_64-mingw32/bin/../lib/gcc/nios2-elf/5.3.0/../../../../../H-x86_64-mingw32/nios2-elf/lib/mhw-mulx\libc.a(lib_a-fflush.o)
 .debug_loc     0x00000000000069d3      0x2ee d:/dev/vhdl/program/nios2eds/bin/gnu/h-x86_64-mingw32/bin/../lib/gcc/nios2-elf/5.3.0/../../../../../H-x86_64-mingw32/nios2-elf/lib/mhw-mulx\libc.a(lib_a-findfp.o)
 .debug_loc     0x0000000000006cc1      0x4e7 d:/dev/vhdl/program/nios2eds/bin/gnu/h-x86_64-mingw32/bin/../lib/gcc/nios2-elf/5.3.0/../../../../../H-x86_64-mingw32/nios2-elf/lib/mhw-mulx\libc.a(lib_a-freer.o)
 .debug_loc     0x00000000000071a8      0x25b d:/dev/vhdl/program/nios2eds/bin/gnu/h-x86_64-mingw32/bin/../lib/gcc/nios2-elf/5.3.0/../../../../../H-x86_64-mingw32/nios2-elf/lib/mhw-mulx\libc.a(lib_a-fwalk.o)
 .debug_loc     0x0000000000007403      0x131 d:/dev/vhdl/program/nios2eds/bin/gnu/h-x86_64-mingw32/bin/../lib/gcc/nios2-elf/5.3.0/../../../../../H-x86_64-mingw32/nios2-elf/lib/mhw-mulx\libc.a(lib_a-locale.o)
 .debug_loc     0x0000000000007534      0x122 d:/dev/vhdl/program/nios2eds/bin/gnu/h-x86_64-mingw32/bin/../lib/gcc/nios2-elf/5.3.0/../../../../../H-x86_64-mingw32/nios2-elf/lib/mhw-mulx\libc.a(lib_a-makebuf.o)
 .debug_loc     0x0000000000007656      0x1a1 d:/dev/vhdl/program/nios2eds/bin/gnu/h-x86_64-mingw32/bin/../lib/gcc/nios2-elf/5.3.0/../../../../../H-x86_64-mingw32/nios2-elf/lib/mhw-mulx\libc.a(lib_a-memchr.o)
 .debug_loc     0x00000000000077f7      0x266 d:/dev/vhdl/program/nios2eds/bin/gnu/h-x86_64-mingw32/bin/../lib/gcc/nios2-elf/5.3.0/../../../../../H-x86_64-mingw32/nios2-elf/lib/mhw-mulx\libc.a(lib_a-memcpy.o)
 .debug_loc     0x0000000000007a5d      0x1a6 d:/dev/vhdl/program/nios2eds/bin/gnu/h-x86_64-mingw32/bin/../lib/gcc/nios2-elf/5.3.0/../../../../../H-x86_64-mingw32/nios2-elf/lib/mhw-mulx\libc.a(lib_a-memset.o)
 .debug_loc     0x0000000000007c03     0x1bee d:/dev/vhdl/program/nios2eds/bin/gnu/h-x86_64-mingw32/bin/../lib/gcc/nios2-elf/5.3.0/../../../../../H-x86_64-mingw32/nios2-elf/lib/mhw-mulx\libc.a(lib_a-mprec.o)
 .debug_loc     0x00000000000097f1       0x2f d:/dev/vhdl/program/nios2eds/bin/gnu/h-x86_64-mingw32/bin/../lib/gcc/nios2-elf/5.3.0/../../../../../H-x86_64-mingw32/nios2-elf/lib/mhw-mulx\libc.a(lib_a-s_fpclassify.o)
 .debug_loc     0x0000000000009820      0x33a d:/dev/vhdl/program/nios2eds/bin/gnu/h-x86_64-mingw32/bin/../lib/gcc/nios2-elf/5.3.0/../../../../../H-x86_64-mingw32/nios2-elf/lib/mhw-mulx\libc.a(lib_a-stdio.o)
 .debug_loc     0x0000000000009b5a       0xc6 d:/dev/vhdl/program/nios2eds/bin/gnu/h-x86_64-mingw32/bin/../lib/gcc/nios2-elf/5.3.0/../../../../../H-x86_64-mingw32/nios2-elf/lib/mhw-mulx\libc.a(lib_a-strcmp.o)
 .debug_loc     0x0000000000009c20       0x47 d:/dev/vhdl/program/nios2eds/bin/gnu/h-x86_64-mingw32/bin/../lib/gcc/nios2-elf/5.3.0/../../../../../H-x86_64-mingw32/nios2-elf/lib/mhw-mulx\libc.a(lib_a-strlen.o)
 .debug_loc     0x0000000000009c67     0x2739 d:/dev/vhdl/program/nios2eds/bin/gnu/h-x86_64-mingw32/bin/../lib/gcc/nios2-elf/5.3.0/../../../../../H-x86_64-mingw32/nios2-elf/lib/mhw-mulx\libc.a(lib_a-vfiprintf.o)
 .debug_loc     0x000000000000c3a0       0xb0 d:/dev/vhdl/program/nios2eds/bin/gnu/h-x86_64-mingw32/bin/../lib/gcc/nios2-elf/5.3.0/../../../../../H-x86_64-mingw32/nios2-elf/lib/mhw-mulx\libc.a(lib_a-writer.o)
 .debug_loc     0x000000000000c450       0x58 d:/dev/vhdl/program/nios2eds/bin/gnu/h-x86_64-mingw32/bin/../lib/gcc/nios2-elf/5.3.0/../../../../../H-x86_64-mingw32/nios2-elf/lib/mhw-mulx\libc.a(closer.o)
 .debug_loc     0x000000000000c4a8      0x1db d:/dev/vhdl/program/nios2eds/bin/gnu/h-x86_64-mingw32/bin/../lib/gcc/nios2-elf/5.3.0/../../../../../H-x86_64-mingw32/nios2-elf/lib/mhw-mulx\libc.a(lib_a-callocr.o)
 .debug_loc     0x000000000000c683      0x199 d:/dev/vhdl/program/nios2eds/bin/gnu/h-x86_64-mingw32/bin/../lib/gcc/nios2-elf/5.3.0/../../../../../H-x86_64-mingw32/nios2-elf/lib/mhw-mulx\libc.a(lib_a-fclose.o)
 .debug_loc     0x000000000000c81c      0x2a1 d:/dev/vhdl/program/nios2eds/bin/gnu/h-x86_64-mingw32/bin/../lib/gcc/nios2-elf/5.3.0/../../../../../H-x86_64-mingw32/nios2-elf/lib/mhw-mulx\libc.a(lib_a-fputwc.o)
 .debug_loc     0x000000000000cabd       0x84 d:/dev/vhdl/program/nios2eds/bin/gnu/h-x86_64-mingw32/bin/../lib/gcc/nios2-elf/5.3.0/../../../../../H-x86_64-mingw32/nios2-elf/lib/mhw-mulx\libc.a(lib_a-fstatr.o)
 .debug_loc     0x000000000000cb41      0x5d7 d:/dev/vhdl/program/nios2eds/bin/gnu/h-x86_64-mingw32/bin/../lib/gcc/nios2-elf/5.3.0/../../../../../H-x86_64-mingw32/nios2-elf/lib/mhw-mulx\libc.a(lib_a-fvwrite.o)
 .debug_loc     0x000000000000d118       0x58 d:/dev/vhdl/program/nios2eds/bin/gnu/h-x86_64-mingw32/bin/../lib/gcc/nios2-elf/5.3.0/../../../../../H-x86_64-mingw32/nios2-elf/lib/mhw-mulx\libc.a(lib_a-isattyr.o)
 .debug_loc     0x000000000000d170       0xb0 d:/dev/vhdl/program/nios2eds/bin/gnu/h-x86_64-mingw32/bin/../lib/gcc/nios2-elf/5.3.0/../../../../../H-x86_64-mingw32/nios2-elf/lib/mhw-mulx\libc.a(lib_a-lseekr.o)
 .debug_loc     0x000000000000d220      0x308 d:/dev/vhdl/program/nios2eds/bin/gnu/h-x86_64-mingw32/bin/../lib/gcc/nios2-elf/5.3.0/../../../../../H-x86_64-mingw32/nios2-elf/lib/mhw-mulx\libc.a(lib_a-memmove.o)
 .debug_loc     0x000000000000d528       0xb0 d:/dev/vhdl/program/nios2eds/bin/gnu/h-x86_64-mingw32/bin/../lib/gcc/nios2-elf/5.3.0/../../../../../H-x86_64-mingw32/nios2-elf/lib/mhw-mulx\libc.a(lib_a-readr.o)
 .debug_loc     0x000000000000d5d8      0xde4 d:/dev/vhdl/program/nios2eds/bin/gnu/h-x86_64-mingw32/bin/../lib/gcc/nios2-elf/5.3.0/../../../../../H-x86_64-mingw32/nios2-elf/lib/mhw-mulx\libc.a(lib_a-reallocr.o)
 .debug_loc     0x000000000000e3bc      0x1b2 d:/dev/vhdl/program/nios2eds/bin/gnu/h-x86_64-mingw32/bin/../lib/gcc/nios2-elf/5.3.0/../../../../../H-x86_64-mingw32/nios2-elf/lib/mhw-mulx\libc.a(lib_a-wbuf.o)
 .debug_loc     0x000000000000e56e      0x24e d:/dev/vhdl/program/nios2eds/bin/gnu/h-x86_64-mingw32/bin/../lib/gcc/nios2-elf/5.3.0/../../../../../H-x86_64-mingw32/nios2-elf/lib/mhw-mulx\libc.a(lib_a-wcrtomb.o)
 .debug_loc     0x000000000000e7bc       0x8f d:/dev/vhdl/program/nios2eds/bin/gnu/h-x86_64-mingw32/bin/../lib/gcc/nios2-elf/5.3.0/../../../../../H-x86_64-mingw32/nios2-elf/lib/mhw-mulx\libc.a(lib_a-wctomb_r.o)
 .debug_loc     0x000000000000e84b     0x10ca d:/dev/vhdl/program/nios2eds/bin/gnu/h-x86_64-mingw32/bin/../lib/gcc/nios2-elf/5.3.0/mhw-mulx\libgcc.a(_udivdi3.o)
 .debug_loc     0x000000000000f915     0x10ad d:/dev/vhdl/program/nios2eds/bin/gnu/h-x86_64-mingw32/bin/../lib/gcc/nios2-elf/5.3.0/mhw-mulx\libgcc.a(_umoddi3.o)
 .debug_loc     0x00000000000109c2      0x4ce d:/dev/vhdl/program/nios2eds/bin/gnu/h-x86_64-mingw32/bin/../lib/gcc/nios2-elf/5.3.0/mhw-mulx\libgcc.a(lib2-divmod.o)
 .debug_loc     0x0000000000010e90     0x16f9 d:/dev/vhdl/program/nios2eds/bin/gnu/h-x86_64-mingw32/bin/../lib/gcc/nios2-elf/5.3.0/mhw-mulx\libgcc.a(adddf3.o)
 .debug_loc     0x0000000000012589     0x1fc6 d:/dev/vhdl/program/nios2eds/bin/gnu/h-x86_64-mingw32/bin/../lib/gcc/nios2-elf/5.3.0/mhw-mulx\libgcc.a(divdf3.o)
 .debug_loc     0x000000000001454f       0x68 d:/dev/vhdl/program/nios2eds/bin/gnu/h-x86_64-mingw32/bin/../lib/gcc/nios2-elf/5.3.0/mhw-mulx\libgcc.a(eqdf2.o)
 .debug_loc     0x00000000000145b7       0xf9 d:/dev/vhdl/program/nios2eds/bin/gnu/h-x86_64-mingw32/bin/../lib/gcc/nios2-elf/5.3.0/mhw-mulx\libgcc.a(gedf2.o)
 .debug_loc     0x00000000000146b0      0x163 d:/dev/vhdl/program/nios2eds/bin/gnu/h-x86_64-mingw32/bin/../lib/gcc/nios2-elf/5.3.0/mhw-mulx\libgcc.a(ledf2.o)
 .debug_loc     0x0000000000014813     0x100d d:/dev/vhdl/program/nios2eds/bin/gnu/h-x86_64-mingw32/bin/../lib/gcc/nios2-elf/5.3.0/mhw-mulx\libgcc.a(muldf3.o)
 .debug_loc     0x0000000000015820     0x1627 d:/dev/vhdl/program/nios2eds/bin/gnu/h-x86_64-mingw32/bin/../lib/gcc/nios2-elf/5.3.0/mhw-mulx\libgcc.a(subdf3.o)
 .debug_loc     0x0000000000016e47      0x121 d:/dev/vhdl/program/nios2eds/bin/gnu/h-x86_64-mingw32/bin/../lib/gcc/nios2-elf/5.3.0/mhw-mulx\libgcc.a(fixdfsi.o)
 .debug_loc     0x0000000000016f68      0x175 d:/dev/vhdl/program/nios2eds/bin/gnu/h-x86_64-mingw32/bin/../lib/gcc/nios2-elf/5.3.0/mhw-mulx\libgcc.a(floatsidf.o)
 .debug_loc     0x00000000000170dd      0x19e d:/dev/vhdl/program/nios2eds/bin/gnu/h-x86_64-mingw32/bin/../lib/gcc/nios2-elf/5.3.0/mhw-mulx\libgcc.a(floatunsidf.o)
 .debug_loc     0x000000000001727b       0x6b d:/dev/vhdl/program/nios2eds/bin/gnu/h-x86_64-mingw32/bin/../lib/gcc/nios2-elf/5.3.0/mhw-mulx\libgcc.a(_clzsi2.o)
 .debug_loc     0x00000000000172e6       0x2c d:/dev/vhdl/program/nios2eds/bin/gnu/h-x86_64-mingw32/bin/../lib/gcc/nios2-elf/5.3.0/../../../../../H-x86_64-mingw32/nios2-elf/lib/mhw-mulx\libc.a(lib_a-atexit.o)
 .debug_loc     0x0000000000017312       0x1e d:/dev/vhdl/program/nios2eds/bin/gnu/h-x86_64-mingw32/bin/../lib/gcc/nios2-elf/5.3.0/../../../../../H-x86_64-mingw32/nios2-elf/lib/mhw-mulx\libc.a(lib_a-exit.o)
 .debug_loc     0x0000000000017330      0x126 d:/dev/vhdl/program/nios2eds/bin/gnu/h-x86_64-mingw32/bin/../lib/gcc/nios2-elf/5.3.0/../../../../../H-x86_64-mingw32/nios2-elf/lib/mhw-mulx\libc.a(lib_a-memcmp.o)
 .debug_loc     0x0000000000017456      0x185 d:/dev/vhdl/program/nios2eds/bin/gnu/h-x86_64-mingw32/bin/../lib/gcc/nios2-elf/5.3.0/../../../../../H-x86_64-mingw32/nios2-elf/lib/mhw-mulx\libc.a(lib_a-__atexit.o)
 .debug_loc     0x00000000000175db      0x1ce d:/dev/vhdl/program/nios2eds/bin/gnu/h-x86_64-mingw32/bin/../lib/gcc/nios2-elf/5.3.0/../../../../../H-x86_64-mingw32/nios2-elf/lib/mhw-mulx\libc.a(lib_a-__call_atexit.o)

.debug_macinfo
 *(.debug_macinfo)

.debug_weaknames
 *(.debug_weaknames)

.debug_funcnames
 *(.debug_funcnames)

.debug_typenames
 *(.debug_typenames)

.debug_varnames
 *(.debug_varnames)

.debug_alt_sim_info
                0x0000000000000000       0x20
 *(.debug_alt_sim_info)
 .debug_alt_sim_info
                0x0000000000000000       0x20 D:/Dev/vhdl/dev/testNIOS/audioVisualisator_bsp//obj/HAL/src/crt0.o
                0x0000000004000000                __alt_data_end = 0x4000000
                0x0000000004000000                PROVIDE (__alt_stack_pointer, __alt_data_end)
                [!provide]                        PROVIDE (__alt_stack_limit, __alt_stack_base)
                0x0000000000023724                PROVIDE (__alt_heap_start, end)
                0x0000000004000000                PROVIDE (__alt_heap_limit, 0x4000000)
OUTPUT(audioVisualisator.elf elf32-littlenios2)

.debug_ranges   0x0000000000000000     0x18c0
 .debug_ranges  0x0000000000000000       0x20 D:/Dev/vhdl/dev/testNIOS/audioVisualisator_bsp//obj/HAL/src/crt0.o
 .debug_ranges  0x0000000000000020       0x18 d:/dev/vhdl/program/nios2eds/bin/gnu/h-x86_64-mingw32/bin/../lib/gcc/nios2-elf/5.3.0/../../../../../H-x86_64-mingw32/nios2-elf/lib/mhw-mulx\libc.a(lib_a-malloc.o)
 .debug_ranges  0x0000000000000038       0x48 d:/dev/vhdl/program/nios2eds/bin/gnu/h-x86_64-mingw32/bin/../lib/gcc/nios2-elf/5.3.0/../../../../../H-x86_64-mingw32/nios2-elf/lib/mhw-mulx\libc.a(lib_a-mallocr.o)
 .debug_ranges  0x0000000000000080       0x18 d:/dev/vhdl/program/nios2eds/bin/gnu/h-x86_64-mingw32/bin/../lib/gcc/nios2-elf/5.3.0/../../../../../H-x86_64-mingw32/nios2-elf/lib/mhw-mulx\libc.a(lib_a-printf.o)
 .debug_ranges  0x0000000000000098       0x18 d:/dev/vhdl/program/nios2eds/bin/gnu/h-x86_64-mingw32/bin/../lib/gcc/nios2-elf/5.3.0/../../../../../H-x86_64-mingw32/nios2-elf/lib/mhw-mulx\libc.a(lib_a-rand.o)
 .debug_ranges  0x00000000000000b0       0x10 d:/dev/vhdl/program/nios2eds/bin/gnu/h-x86_64-mingw32/bin/../lib/gcc/nios2-elf/5.3.0/../../../../../H-x86_64-mingw32/nios2-elf/lib/mhw-mulx\libc.a(lib_a-sbrkr.o)
 .debug_ranges  0x00000000000000c0      0x178 d:/dev/vhdl/program/nios2eds/bin/gnu/h-x86_64-mingw32/bin/../lib/gcc/nios2-elf/5.3.0/../../../../../H-x86_64-mingw32/nios2-elf/lib/mhw-mulx\libc.a(lib_a-vfprintf.o)
 .debug_ranges  0x0000000000000238       0x40 d:/dev/vhdl/program/nios2eds/bin/gnu/h-x86_64-mingw32/bin/../lib/gcc/nios2-elf/5.3.0/../../../../../H-x86_64-mingw32/nios2-elf/lib/mhw-mulx\libc.a(lib_a-wsetup.o)
 .debug_ranges  0x0000000000000278       0x18 d:/dev/vhdl/program/nios2eds/bin/gnu/h-x86_64-mingw32/bin/../lib/gcc/nios2-elf/5.3.0/../../../../../H-x86_64-mingw32/nios2-elf/lib/mhw-mulx\libc.a(lib_a-dtoa.o)
 .debug_ranges  0x0000000000000290       0x58 d:/dev/vhdl/program/nios2eds/bin/gnu/h-x86_64-mingw32/bin/../lib/gcc/nios2-elf/5.3.0/../../../../../H-x86_64-mingw32/nios2-elf/lib/mhw-mulx\libc.a(lib_a-fflush.o)
 .debug_ranges  0x00000000000002e8       0xc8 d:/dev/vhdl/program/nios2eds/bin/gnu/h-x86_64-mingw32/bin/../lib/gcc/nios2-elf/5.3.0/../../../../../H-x86_64-mingw32/nios2-elf/lib/mhw-mulx\libc.a(lib_a-findfp.o)
 .debug_ranges  0x00000000000003b0       0x18 d:/dev/vhdl/program/nios2eds/bin/gnu/h-x86_64-mingw32/bin/../lib/gcc/nios2-elf/5.3.0/../../../../../H-x86_64-mingw32/nios2-elf/lib/mhw-mulx\libc.a(lib_a-freer.o)
 .debug_ranges  0x00000000000003c8       0x18 d:/dev/vhdl/program/nios2eds/bin/gnu/h-x86_64-mingw32/bin/../lib/gcc/nios2-elf/5.3.0/../../../../../H-x86_64-mingw32/nios2-elf/lib/mhw-mulx\libc.a(lib_a-fwalk.o)
 .debug_ranges  0x00000000000003e0       0x60 d:/dev/vhdl/program/nios2eds/bin/gnu/h-x86_64-mingw32/bin/../lib/gcc/nios2-elf/5.3.0/../../../../../H-x86_64-mingw32/nios2-elf/lib/mhw-mulx\libc.a(lib_a-locale.o)
 .debug_ranges  0x0000000000000440       0x10 d:/dev/vhdl/program/nios2eds/bin/gnu/h-x86_64-mingw32/bin/../lib/gcc/nios2-elf/5.3.0/../../../../../H-x86_64-mingw32/nios2-elf/lib/mhw-mulx\libc.a(lib_a-makebuf.o)
 .debug_ranges  0x0000000000000450       0x10 d:/dev/vhdl/program/nios2eds/bin/gnu/h-x86_64-mingw32/bin/../lib/gcc/nios2-elf/5.3.0/../../../../../H-x86_64-mingw32/nios2-elf/lib/mhw-mulx\libc.a(lib_a-memchr.o)
 .debug_ranges  0x0000000000000460       0x10 d:/dev/vhdl/program/nios2eds/bin/gnu/h-x86_64-mingw32/bin/../lib/gcc/nios2-elf/5.3.0/../../../../../H-x86_64-mingw32/nios2-elf/lib/mhw-mulx\libc.a(lib_a-memcpy.o)
 .debug_ranges  0x0000000000000470       0x10 d:/dev/vhdl/program/nios2eds/bin/gnu/h-x86_64-mingw32/bin/../lib/gcc/nios2-elf/5.3.0/../../../../../H-x86_64-mingw32/nios2-elf/lib/mhw-mulx\libc.a(lib_a-memset.o)
 .debug_ranges  0x0000000000000480       0xe8 d:/dev/vhdl/program/nios2eds/bin/gnu/h-x86_64-mingw32/bin/../lib/gcc/nios2-elf/5.3.0/../../../../../H-x86_64-mingw32/nios2-elf/lib/mhw-mulx\libc.a(lib_a-mprec.o)
 .debug_ranges  0x0000000000000568       0x10 d:/dev/vhdl/program/nios2eds/bin/gnu/h-x86_64-mingw32/bin/../lib/gcc/nios2-elf/5.3.0/../../../../../H-x86_64-mingw32/nios2-elf/lib/mhw-mulx\libc.a(lib_a-s_fpclassify.o)
 .debug_ranges  0x0000000000000578       0x30 d:/dev/vhdl/program/nios2eds/bin/gnu/h-x86_64-mingw32/bin/../lib/gcc/nios2-elf/5.3.0/../../../../../H-x86_64-mingw32/nios2-elf/lib/mhw-mulx\libc.a(lib_a-stdio.o)
 .debug_ranges  0x00000000000005a8       0x10 d:/dev/vhdl/program/nios2eds/bin/gnu/h-x86_64-mingw32/bin/../lib/gcc/nios2-elf/5.3.0/../../../../../H-x86_64-mingw32/nios2-elf/lib/mhw-mulx\libc.a(lib_a-strcmp.o)
 .debug_ranges  0x00000000000005b8       0x10 d:/dev/vhdl/program/nios2eds/bin/gnu/h-x86_64-mingw32/bin/../lib/gcc/nios2-elf/5.3.0/../../../../../H-x86_64-mingw32/nios2-elf/lib/mhw-mulx\libc.a(lib_a-strlen.o)
 .debug_ranges  0x00000000000005c8      0x1b8 d:/dev/vhdl/program/nios2eds/bin/gnu/h-x86_64-mingw32/bin/../lib/gcc/nios2-elf/5.3.0/../../../../../H-x86_64-mingw32/nios2-elf/lib/mhw-mulx\libc.a(lib_a-vfiprintf.o)
 .debug_ranges  0x0000000000000780       0x10 d:/dev/vhdl/program/nios2eds/bin/gnu/h-x86_64-mingw32/bin/../lib/gcc/nios2-elf/5.3.0/../../../../../H-x86_64-mingw32/nios2-elf/lib/mhw-mulx\libc.a(lib_a-writer.o)
 .debug_ranges  0x0000000000000790       0x10 d:/dev/vhdl/program/nios2eds/bin/gnu/h-x86_64-mingw32/bin/../lib/gcc/nios2-elf/5.3.0/../../../../../H-x86_64-mingw32/nios2-elf/lib/mhw-mulx\libc.a(closer.o)
 .debug_ranges  0x00000000000007a0       0x48 d:/dev/vhdl/program/nios2eds/bin/gnu/h-x86_64-mingw32/bin/../lib/gcc/nios2-elf/5.3.0/../../../../../H-x86_64-mingw32/nios2-elf/lib/mhw-mulx\libc.a(lib_a-callocr.o)
 .debug_ranges  0x00000000000007e8       0x48 d:/dev/vhdl/program/nios2eds/bin/gnu/h-x86_64-mingw32/bin/../lib/gcc/nios2-elf/5.3.0/../../../../../H-x86_64-mingw32/nios2-elf/lib/mhw-mulx\libc.a(lib_a-fclose.o)
 .debug_ranges  0x0000000000000830       0x50 d:/dev/vhdl/program/nios2eds/bin/gnu/h-x86_64-mingw32/bin/../lib/gcc/nios2-elf/5.3.0/../../../../../H-x86_64-mingw32/nios2-elf/lib/mhw-mulx\libc.a(lib_a-fputwc.o)
 .debug_ranges  0x0000000000000880       0x10 d:/dev/vhdl/program/nios2eds/bin/gnu/h-x86_64-mingw32/bin/../lib/gcc/nios2-elf/5.3.0/../../../../../H-x86_64-mingw32/nios2-elf/lib/mhw-mulx\libc.a(lib_a-fstatr.o)
 .debug_ranges  0x0000000000000890       0x30 d:/dev/vhdl/program/nios2eds/bin/gnu/h-x86_64-mingw32/bin/../lib/gcc/nios2-elf/5.3.0/../../../../../H-x86_64-mingw32/nios2-elf/lib/mhw-mulx\libc.a(lib_a-fvwrite.o)
 .debug_ranges  0x00000000000008c0       0x10 d:/dev/vhdl/program/nios2eds/bin/gnu/h-x86_64-mingw32/bin/../lib/gcc/nios2-elf/5.3.0/../../../../../H-x86_64-mingw32/nios2-elf/lib/mhw-mulx\libc.a(lib_a-isattyr.o)
 .debug_ranges  0x00000000000008d0       0x10 d:/dev/vhdl/program/nios2eds/bin/gnu/h-x86_64-mingw32/bin/../lib/gcc/nios2-elf/5.3.0/../../../../../H-x86_64-mingw32/nios2-elf/lib/mhw-mulx\libc.a(lib_a-lseekr.o)
 .debug_ranges  0x00000000000008e0       0x10 d:/dev/vhdl/program/nios2eds/bin/gnu/h-x86_64-mingw32/bin/../lib/gcc/nios2-elf/5.3.0/../../../../../H-x86_64-mingw32/nios2-elf/lib/mhw-mulx\libc.a(lib_a-memmove.o)
 .debug_ranges  0x00000000000008f0       0x10 d:/dev/vhdl/program/nios2eds/bin/gnu/h-x86_64-mingw32/bin/../lib/gcc/nios2-elf/5.3.0/../../../../../H-x86_64-mingw32/nios2-elf/lib/mhw-mulx\libc.a(lib_a-readr.o)
 .debug_ranges  0x0000000000000900      0x148 d:/dev/vhdl/program/nios2eds/bin/gnu/h-x86_64-mingw32/bin/../lib/gcc/nios2-elf/5.3.0/../../../../../H-x86_64-mingw32/nios2-elf/lib/mhw-mulx\libc.a(lib_a-reallocr.o)
 .debug_ranges  0x0000000000000a48       0x30 d:/dev/vhdl/program/nios2eds/bin/gnu/h-x86_64-mingw32/bin/../lib/gcc/nios2-elf/5.3.0/../../../../../H-x86_64-mingw32/nios2-elf/lib/mhw-mulx\libc.a(lib_a-wbuf.o)
 .debug_ranges  0x0000000000000a78       0x18 d:/dev/vhdl/program/nios2eds/bin/gnu/h-x86_64-mingw32/bin/../lib/gcc/nios2-elf/5.3.0/../../../../../H-x86_64-mingw32/nios2-elf/lib/mhw-mulx\libc.a(lib_a-wcrtomb.o)
 .debug_ranges  0x0000000000000a90       0x18 d:/dev/vhdl/program/nios2eds/bin/gnu/h-x86_64-mingw32/bin/../lib/gcc/nios2-elf/5.3.0/../../../../../H-x86_64-mingw32/nios2-elf/lib/mhw-mulx\libc.a(lib_a-wctomb_r.o)
 .debug_ranges  0x0000000000000aa8      0x158 d:/dev/vhdl/program/nios2eds/bin/gnu/h-x86_64-mingw32/bin/../lib/gcc/nios2-elf/5.3.0/mhw-mulx\libgcc.a(_udivdi3.o)
 .debug_ranges  0x0000000000000c00      0x160 d:/dev/vhdl/program/nios2eds/bin/gnu/h-x86_64-mingw32/bin/../lib/gcc/nios2-elf/5.3.0/mhw-mulx\libgcc.a(_umoddi3.o)
 .debug_ranges  0x0000000000000d60       0x60 d:/dev/vhdl/program/nios2eds/bin/gnu/h-x86_64-mingw32/bin/../lib/gcc/nios2-elf/5.3.0/mhw-mulx\libgcc.a(lib2-divmod.o)
 .debug_ranges  0x0000000000000dc0      0x240 d:/dev/vhdl/program/nios2eds/bin/gnu/h-x86_64-mingw32/bin/../lib/gcc/nios2-elf/5.3.0/mhw-mulx\libgcc.a(adddf3.o)
 .debug_ranges  0x0000000000001000      0x138 d:/dev/vhdl/program/nios2eds/bin/gnu/h-x86_64-mingw32/bin/../lib/gcc/nios2-elf/5.3.0/mhw-mulx\libgcc.a(divdf3.o)
 .debug_ranges  0x0000000000001138       0x48 d:/dev/vhdl/program/nios2eds/bin/gnu/h-x86_64-mingw32/bin/../lib/gcc/nios2-elf/5.3.0/mhw-mulx\libgcc.a(eqdf2.o)
 .debug_ranges  0x0000000000001180       0x88 d:/dev/vhdl/program/nios2eds/bin/gnu/h-x86_64-mingw32/bin/../lib/gcc/nios2-elf/5.3.0/mhw-mulx\libgcc.a(gedf2.o)
 .debug_ranges  0x0000000000001208       0xa8 d:/dev/vhdl/program/nios2eds/bin/gnu/h-x86_64-mingw32/bin/../lib/gcc/nios2-elf/5.3.0/mhw-mulx\libgcc.a(ledf2.o)
 .debug_ranges  0x00000000000012b0      0x1f0 d:/dev/vhdl/program/nios2eds/bin/gnu/h-x86_64-mingw32/bin/../lib/gcc/nios2-elf/5.3.0/mhw-mulx\libgcc.a(muldf3.o)
 .debug_ranges  0x00000000000014a0      0x268 d:/dev/vhdl/program/nios2eds/bin/gnu/h-x86_64-mingw32/bin/../lib/gcc/nios2-elf/5.3.0/mhw-mulx\libgcc.a(subdf3.o)
 .debug_ranges  0x0000000000001708       0x30 d:/dev/vhdl/program/nios2eds/bin/gnu/h-x86_64-mingw32/bin/../lib/gcc/nios2-elf/5.3.0/mhw-mulx\libgcc.a(fixdfsi.o)
 .debug_ranges  0x0000000000001738       0x20 d:/dev/vhdl/program/nios2eds/bin/gnu/h-x86_64-mingw32/bin/../lib/gcc/nios2-elf/5.3.0/mhw-mulx\libgcc.a(floatsidf.o)
 .debug_ranges  0x0000000000001758       0x18 d:/dev/vhdl/program/nios2eds/bin/gnu/h-x86_64-mingw32/bin/../lib/gcc/nios2-elf/5.3.0/mhw-mulx\libgcc.a(floatunsidf.o)
 .debug_ranges  0x0000000000001770       0x18 d:/dev/vhdl/program/nios2eds/bin/gnu/h-x86_64-mingw32/bin/../lib/gcc/nios2-elf/5.3.0/mhw-mulx\libgcc.a(_clzsi2.o)
 .debug_ranges  0x0000000000001788       0x30 D:/Dev/vhdl/dev/testNIOS/audioVisualisator_bsp/\libucosii_bsp.a(altera_avalon_jtag_uart_init.o)
 .debug_ranges  0x00000000000017b8       0x18 D:/Dev/vhdl/dev/testNIOS/audioVisualisator_bsp/\libucosii_bsp.a(altera_avalon_jtag_uart_read.o)
 .debug_ranges  0x00000000000017d0       0x28 D:/Dev/vhdl/dev/testNIOS/audioVisualisator_bsp/\libucosii_bsp.a(alt_irq_entry.o)
 .debug_ranges  0x00000000000017f8       0x10 D:/Dev/vhdl/dev/testNIOS/audioVisualisator_bsp/\libucosii_bsp.a(alt_irq_handler.o)
 .debug_ranges  0x0000000000001808       0x30 D:/Dev/vhdl/dev/testNIOS/audioVisualisator_bsp/\libucosii_bsp.a(alt_exception_entry.o)
 .debug_ranges  0x0000000000001838       0x18 D:/Dev/vhdl/dev/testNIOS/audioVisualisator_bsp/\libucosii_bsp.a(alt_instruction_exception_entry.o)
 .debug_ranges  0x0000000000001850       0x10 d:/dev/vhdl/program/nios2eds/bin/gnu/h-x86_64-mingw32/bin/../lib/gcc/nios2-elf/5.3.0/../../../../../H-x86_64-mingw32/nios2-elf/lib/mhw-mulx\libc.a(lib_a-atexit.o)
 .debug_ranges  0x0000000000001860       0x10 d:/dev/vhdl/program/nios2eds/bin/gnu/h-x86_64-mingw32/bin/../lib/gcc/nios2-elf/5.3.0/../../../../../H-x86_64-mingw32/nios2-elf/lib/mhw-mulx\libc.a(lib_a-exit.o)
 .debug_ranges  0x0000000000001870       0x10 d:/dev/vhdl/program/nios2eds/bin/gnu/h-x86_64-mingw32/bin/../lib/gcc/nios2-elf/5.3.0/../../../../../H-x86_64-mingw32/nios2-elf/lib/mhw-mulx\libc.a(lib_a-memcmp.o)
 .debug_ranges  0x0000000000001880       0x10 d:/dev/vhdl/program/nios2eds/bin/gnu/h-x86_64-mingw32/bin/../lib/gcc/nios2-elf/5.3.0/../../../../../H-x86_64-mingw32/nios2-elf/lib/mhw-mulx\libc.a(lib_a-__atexit.o)
 .debug_ranges  0x0000000000001890       0x30 d:/dev/vhdl/program/nios2eds/bin/gnu/h-x86_64-mingw32/bin/../lib/gcc/nios2-elf/5.3.0/../../../../../H-x86_64-mingw32/nios2-elf/lib/mhw-mulx\libc.a(lib_a-__call_atexit.o)
